Archive member included because of file (symbol)

/alps/mprelease/MPload/ALPS.JB2.MP.V1.3_VANZO89_WET_JB2/source/alps/mediatek/platform/mt6589/preloader/src/SecLib.a(seclib.o)
                              /alps/mprelease/MPload/ALPS.JB2.MP.V1.3_VANZO89_WET_JB2/source/alps/mediatek/preloader/out/sec.o (seclib_init)
/alps/mprelease/MPload/ALPS.JB2.MP.V1.3_VANZO89_WET_JB2/source/alps/mediatek/platform/mt6589/preloader/src/SecLib.a(seclib_boot.o)
                              /alps/mprelease/MPload/ALPS.JB2.MP.V1.3_VANZO89_WET_JB2/source/alps/mediatek/preloader/out/sec_boot.o (seclib_sec_boot_enabled)
/alps/mprelease/MPload/ALPS.JB2.MP.V1.3_VANZO89_WET_JB2/source/alps/mediatek/platform/mt6589/preloader/src/SecLib.a(seclib_dl.o)
                              /alps/mprelease/MPload/ALPS.JB2.MP.V1.3_VANZO89_WET_JB2/source/alps/mediatek/preloader/out/download.o (seclib_sec_usbdl_enabled)
/alps/mprelease/MPload/ALPS.JB2.MP.V1.3_VANZO89_WET_JB2/source/alps/mediatek/platform/mt6589/preloader/src/SecLib.a(seclib_img_hash.o)
                              /alps/mprelease/MPload/ALPS.JB2.MP.V1.3_VANZO89_WET_JB2/source/alps/mediatek/preloader/out/sec_auth.o (seclib_image_hash_compute)
/alps/mprelease/MPload/ALPS.JB2.MP.V1.3_VANZO89_WET_JB2/source/alps/mediatek/platform/mt6589/preloader/src/SecLib.a(seclib_img_verify.o)
                              /alps/mprelease/MPload/ALPS.JB2.MP.V1.3_VANZO89_WET_JB2/source/alps/mediatek/platform/mt6589/preloader/src/SecLib.a(seclib_boot.o) (seclib_image_verify)
/alps/mprelease/MPload/ALPS.JB2.MP.V1.3_VANZO89_WET_JB2/source/alps/mediatek/platform/mt6589/preloader/src/SecLib.a(seclib_key.o)
                              /alps/mprelease/MPload/ALPS.JB2.MP.V1.3_VANZO89_WET_JB2/source/alps/mediatek/preloader/out/sec_key.o (seclib_read_sbc_key)
/alps/mprelease/MPload/ALPS.JB2.MP.V1.3_VANZO89_WET_JB2/source/alps/mediatek/platform/mt6589/preloader/src/SecLib.a(seclib_secroimg.o)
                              /alps/mprelease/MPload/ALPS.JB2.MP.V1.3_VANZO89_WET_JB2/source/alps/mediatek/preloader/out/sec_secroimg.o (seclib_secroimg_read)
/alps/mprelease/MPload/ALPS.JB2.MP.V1.3_VANZO89_WET_JB2/source/alps/mediatek/platform/mt6589/preloader/src/SecLib.a(seclib_sej_export.o)
                              /alps/mprelease/MPload/ALPS.JB2.MP.V1.3_VANZO89_WET_JB2/source/alps/mediatek/platform/mt6589/preloader/src/SecLib.a(seclib.o) (sp_read_swotp)
/alps/mprelease/MPload/ALPS.JB2.MP.V1.3_VANZO89_WET_JB2/source/alps/mediatek/platform/mt6589/preloader/src/SecLib.a(seclib_util.o)
                              /alps/mprelease/MPload/ALPS.JB2.MP.V1.3_VANZO89_WET_JB2/source/alps/mediatek/platform/mt6589/preloader/src/SecLib.a(seclib_img_verify.o) (seclib_image_hash_dump)
/alps/mprelease/MPload/ALPS.JB2.MP.V1.3_VANZO89_WET_JB2/source/alps/mediatek/platform/mt6589/preloader/src/SecLib.a(weak_auth.o)
                              /alps/mprelease/MPload/ALPS.JB2.MP.V1.3_VANZO89_WET_JB2/source/alps/mediatek/preloader/out/sec_auth.o (seclib_rsa_init)
/alps/mprelease/MPload/ALPS.JB2.MP.V1.3_VANZO89_WET_JB2/source/alps/mediatek/platform/mt6589/preloader/src/SecLib.a(seccfg_crypto.o)
                              /alps/mprelease/MPload/ALPS.JB2.MP.V1.3_VANZO89_WET_JB2/source/alps/mediatek/platform/mt6589/preloader/src/SecLib.a(seclib.o) (get_seccfg_cipher_len)
/alps/mprelease/MPload/ALPS.JB2.MP.V1.3_VANZO89_WET_JB2/source/alps/mediatek/platform/mt6589/preloader/src/security/auth/DaVerifyLib.a(auth.o)
                              /alps/mprelease/MPload/ALPS.JB2.MP.V1.3_VANZO89_WET_JB2/source/alps/mediatek/preloader/out/sec_auth.o (seclib_mtk_rsa_n_key_len)
/alps/mprelease/MPload/ALPS.JB2.MP.V1.3_VANZO89_WET_JB2/source/alps/mediatek/platform/mt6589/preloader/src/security/auth/DaVerifyLib.a(bgn_io.o)
                              /alps/mprelease/MPload/ALPS.JB2.MP.V1.3_VANZO89_WET_JB2/source/alps/mediatek/platform/mt6589/preloader/src/security/auth/DaVerifyLib.a(auth.o) (bgn_read_str)
/alps/mprelease/MPload/ALPS.JB2.MP.V1.3_VANZO89_WET_JB2/source/alps/mediatek/platform/mt6589/preloader/src/security/auth/DaVerifyLib.a(bgn_util.o)
                              /alps/mprelease/MPload/ALPS.JB2.MP.V1.3_VANZO89_WET_JB2/source/alps/mediatek/platform/mt6589/preloader/src/security/auth/DaVerifyLib.a(bgn_io.o) (bgn_grow)
/alps/mprelease/MPload/ALPS.JB2.MP.V1.3_VANZO89_WET_JB2/source/alps/mediatek/platform/mt6589/preloader/src/security/auth/DaVerifyLib.a(rsa.o)
                              /alps/mprelease/MPload/ALPS.JB2.MP.V1.3_VANZO89_WET_JB2/source/alps/mediatek/platform/mt6589/preloader/src/security/auth/DaVerifyLib.a(auth.o) (rsa_verify)
/alps/mprelease/MPload/ALPS.JB2.MP.V1.3_VANZO89_WET_JB2/source/alps/mediatek/platform/mt6589/preloader/src/security/auth/DaVerifyLib.a(sha1.o)
                              /alps/mprelease/MPload/ALPS.JB2.MP.V1.3_VANZO89_WET_JB2/source/alps/mediatek/platform/mt6589/preloader/src/SecLib.a(seclib_img_hash.o) (sha1)
/alps/mprelease/MPload/ALPS.JB2.MP.V1.3_VANZO89_WET_JB2/source/alps/mediatek/platform/mt6589/preloader/src/security/auth/DaVerifyLib.a(stdlib.o)
                              /alps/mprelease/MPload/ALPS.JB2.MP.V1.3_VANZO89_WET_JB2/source/alps/mediatek/platform/mt6589/preloader/src/security/auth/DaVerifyLib.a(bgn_util.o) (malloc)
/alps/mprelease/MPload/ALPS.JB2.MP.V1.3_VANZO89_WET_JB2/source/alps/mediatek/platform/mt6589/preloader/src/security/auth/DaVerifyLib.a(bgn_core.o)
                              /alps/mprelease/MPload/ALPS.JB2.MP.V1.3_VANZO89_WET_JB2/source/alps/mediatek/platform/mt6589/preloader/src/security/auth/DaVerifyLib.a(bgn_io.o) (bgn_init)
/alps/mprelease/MPload/ALPS.JB2.MP.V1.3_VANZO89_WET_JB2/source/alps/mediatek/platform/mt6589/preloader/src/security/auth/DaVerifyLib.a(montg.o)
                              /alps/mprelease/MPload/ALPS.JB2.MP.V1.3_VANZO89_WET_JB2/source/alps/mediatek/platform/mt6589/preloader/src/security/auth/DaVerifyLib.a(bgn_core.o) (montg_init)
/alps/mprelease/MPload/ALPS.JB2.MP.V1.3_VANZO89_WET_JB2/source/alps/mediatek/platform/mt6589/preloader/src/SecPlat.a(efuse.o)
                              /alps/mprelease/MPload/ALPS.JB2.MP.V1.3_VANZO89_WET_JB2/source/alps/mediatek/preloader/out/download.o (seclib_sbc_enabled)
/alps/mprelease/MPload/ALPS.JB2.MP.V1.3_VANZO89_WET_JB2/source/alps/mediatek/platform/mt6589/preloader/src/SecPlat.a(meta.o)
                              /alps/mprelease/MPload/ALPS.JB2.MP.V1.3_VANZO89_WET_JB2/source/alps/mediatek/preloader/out/main.o (seclib_brom_meta_mode)
/alps/mprelease/MPload/ALPS.JB2.MP.V1.3_VANZO89_WET_JB2/source/alps/mediatek/platform/mt6589/preloader/src/SecPlat.a(seclib_region.o)
                              /alps/mprelease/MPload/ALPS.JB2.MP.V1.3_VANZO89_WET_JB2/source/alps/mediatek/preloader/out/sec_region.o (seclib_region_check)
/alps/mprelease/MPload/ALPS.JB2.MP.V1.3_VANZO89_WET_JB2/source/alps/mediatek/platform/mt6589/preloader/src/SecPlat.a(sej_hk.o)
                              /alps/mprelease/MPload/ALPS.JB2.MP.V1.3_VANZO89_WET_JB2/source/alps/mediatek/platform/mt6589/preloader/src/SecLib.a(seclib_sej_export.o) (SEJ_V3_Init)
/alps/mprelease/MPload/ALPS.JB2.MP.V1.3_VANZO89_WET_JB2/source/alps/mediatek/platform/mt6589/preloader/src/SecPlat.a(sej_sk.o)
                              /alps/mprelease/MPload/ALPS.JB2.MP.V1.3_VANZO89_WET_JB2/source/alps/mediatek/platform/mt6589/preloader/src/SecLib.a(seclib_sej_export.o) (sej_set_key)

Discarded input sections

 .text          0x00000000        0x0 /alps/mprelease/MPload/ALPS.JB2.MP.V1.3_VANZO89_WET_JB2/source/alps/mediatek/preloader/out/addr_trans.o
 .data          0x00000000        0x0 /alps/mprelease/MPload/ALPS.JB2.MP.V1.3_VANZO89_WET_JB2/source/alps/mediatek/preloader/out/addr_trans.o
 .bss           0x00000000        0x0 /alps/mprelease/MPload/ALPS.JB2.MP.V1.3_VANZO89_WET_JB2/source/alps/mediatek/preloader/out/addr_trans.o
 .text.phys_to_virt_addr
                0x00000000       0x98 /alps/mprelease/MPload/ALPS.JB2.MP.V1.3_VANZO89_WET_JB2/source/alps/mediatek/preloader/out/addr_trans.o
 .note.GNU-stack
                0x00000000        0x0 /alps/mprelease/MPload/ALPS.JB2.MP.V1.3_VANZO89_WET_JB2/source/alps/mediatek/preloader/out/addr_trans.o
 .text          0x00000000        0x0 /alps/mprelease/MPload/ALPS.JB2.MP.V1.3_VANZO89_WET_JB2/source/alps/mediatek/preloader/out/blkdev.o
 .data          0x00000000        0x0 /alps/mprelease/MPload/ALPS.JB2.MP.V1.3_VANZO89_WET_JB2/source/alps/mediatek/preloader/out/blkdev.o
 .bss           0x00000000        0x0 /alps/mprelease/MPload/ALPS.JB2.MP.V1.3_VANZO89_WET_JB2/source/alps/mediatek/preloader/out/blkdev.o
 .text.blkdev_bread
                0x00000000       0x10 /alps/mprelease/MPload/ALPS.JB2.MP.V1.3_VANZO89_WET_JB2/source/alps/mediatek/preloader/out/blkdev.o
 .text.blkdev_bwrite
                0x00000000       0x10 /alps/mprelease/MPload/ALPS.JB2.MP.V1.3_VANZO89_WET_JB2/source/alps/mediatek/preloader/out/blkdev.o
 .note.GNU-stack
                0x00000000        0x0 /alps/mprelease/MPload/ALPS.JB2.MP.V1.3_VANZO89_WET_JB2/source/alps/mediatek/preloader/out/blkdev.o
 .text          0x00000000        0x0 /alps/mprelease/MPload/ALPS.JB2.MP.V1.3_VANZO89_WET_JB2/source/alps/mediatek/preloader/out/circbuf.o
 .data          0x00000000        0x0 /alps/mprelease/MPload/ALPS.JB2.MP.V1.3_VANZO89_WET_JB2/source/alps/mediatek/preloader/out/circbuf.o
 .bss           0x00000000        0x0 /alps/mprelease/MPload/ALPS.JB2.MP.V1.3_VANZO89_WET_JB2/source/alps/mediatek/preloader/out/circbuf.o
 .note.GNU-stack
                0x00000000        0x0 /alps/mprelease/MPload/ALPS.JB2.MP.V1.3_VANZO89_WET_JB2/source/alps/mediatek/preloader/out/circbuf.o
 .text          0x00000000        0x0 /alps/mprelease/MPload/ALPS.JB2.MP.V1.3_VANZO89_WET_JB2/source/alps/mediatek/preloader/out/cust_msdc.o
 .data          0x00000000        0x0 /alps/mprelease/MPload/ALPS.JB2.MP.V1.3_VANZO89_WET_JB2/source/alps/mediatek/preloader/out/cust_msdc.o
 .bss           0x00000000        0x0 /alps/mprelease/MPload/ALPS.JB2.MP.V1.3_VANZO89_WET_JB2/source/alps/mediatek/preloader/out/cust_msdc.o
 .note.GNU-stack
                0x00000000        0x0 /alps/mprelease/MPload/ALPS.JB2.MP.V1.3_VANZO89_WET_JB2/source/alps/mediatek/preloader/out/cust_msdc.o
 .text          0x00000000        0x0 /alps/mprelease/MPload/ALPS.JB2.MP.V1.3_VANZO89_WET_JB2/source/alps/mediatek/preloader/out/custom_emi.o
 .data          0x00000000        0x0 /alps/mprelease/MPload/ALPS.JB2.MP.V1.3_VANZO89_WET_JB2/source/alps/mediatek/preloader/out/custom_emi.o
 .bss           0x00000000        0x0 /alps/mprelease/MPload/ALPS.JB2.MP.V1.3_VANZO89_WET_JB2/source/alps/mediatek/preloader/out/custom_emi.o
 .note.GNU-stack
                0x00000000        0x0 /alps/mprelease/MPload/ALPS.JB2.MP.V1.3_VANZO89_WET_JB2/source/alps/mediatek/preloader/out/custom_emi.o
 .text          0x00000000        0x0 /alps/mprelease/MPload/ALPS.JB2.MP.V1.3_VANZO89_WET_JB2/source/alps/mediatek/preloader/out/cust_part.o
 .data          0x00000000        0x0 /alps/mprelease/MPload/ALPS.JB2.MP.V1.3_VANZO89_WET_JB2/source/alps/mediatek/preloader/out/cust_part.o
 .bss           0x00000000        0x0 /alps/mprelease/MPload/ALPS.JB2.MP.V1.3_VANZO89_WET_JB2/source/alps/mediatek/preloader/out/cust_part.o
 .note.GNU-stack
                0x00000000        0x0 /alps/mprelease/MPload/ALPS.JB2.MP.V1.3_VANZO89_WET_JB2/source/alps/mediatek/preloader/out/cust_part.o
 .text          0x00000000        0x0 /alps/mprelease/MPload/ALPS.JB2.MP.V1.3_VANZO89_WET_JB2/source/alps/mediatek/preloader/out/device_apc.o
 .data          0x00000000        0x0 /alps/mprelease/MPload/ALPS.JB2.MP.V1.3_VANZO89_WET_JB2/source/alps/mediatek/preloader/out/device_apc.o
 .bss           0x00000000        0x0 /alps/mprelease/MPload/ALPS.JB2.MP.V1.3_VANZO89_WET_JB2/source/alps/mediatek/preloader/out/device_apc.o
 .note.GNU-stack
                0x00000000        0x0 /alps/mprelease/MPload/ALPS.JB2.MP.V1.3_VANZO89_WET_JB2/source/alps/mediatek/preloader/out/device_apc.o
 .text          0x00000000        0x0 /alps/mprelease/MPload/ALPS.JB2.MP.V1.3_VANZO89_WET_JB2/source/alps/mediatek/preloader/out/div0.o
 .data          0x00000000        0x0 /alps/mprelease/MPload/ALPS.JB2.MP.V1.3_VANZO89_WET_JB2/source/alps/mediatek/preloader/out/div0.o
 .bss           0x00000000        0x0 /alps/mprelease/MPload/ALPS.JB2.MP.V1.3_VANZO89_WET_JB2/source/alps/mediatek/preloader/out/div0.o
 .note.GNU-stack
                0x00000000        0x0 /alps/mprelease/MPload/ALPS.JB2.MP.V1.3_VANZO89_WET_JB2/source/alps/mediatek/preloader/out/div0.o
 .text          0x00000000        0x0 /alps/mprelease/MPload/ALPS.JB2.MP.V1.3_VANZO89_WET_JB2/source/alps/mediatek/preloader/out/download_legacy.o
 .data          0x00000000        0x0 /alps/mprelease/MPload/ALPS.JB2.MP.V1.3_VANZO89_WET_JB2/source/alps/mediatek/preloader/out/download_legacy.o
 .bss           0x00000000        0x0 /alps/mprelease/MPload/ALPS.JB2.MP.V1.3_VANZO89_WET_JB2/source/alps/mediatek/preloader/out/download_legacy.o
 .note.GNU-stack
                0x00000000        0x0 /alps/mprelease/MPload/ALPS.JB2.MP.V1.3_VANZO89_WET_JB2/source/alps/mediatek/preloader/out/download_legacy.o
 .text          0x00000000        0x0 /alps/mprelease/MPload/ALPS.JB2.MP.V1.3_VANZO89_WET_JB2/source/alps/mediatek/preloader/out/download_legacy_utils.o
 .data          0x00000000        0x0 /alps/mprelease/MPload/ALPS.JB2.MP.V1.3_VANZO89_WET_JB2/source/alps/mediatek/preloader/out/download_legacy_utils.o
 .bss           0x00000000        0x0 /alps/mprelease/MPload/ALPS.JB2.MP.V1.3_VANZO89_WET_JB2/source/alps/mediatek/preloader/out/download_legacy_utils.o
 .note.GNU-stack
                0x00000000        0x0 /alps/mprelease/MPload/ALPS.JB2.MP.V1.3_VANZO89_WET_JB2/source/alps/mediatek/preloader/out/download_legacy_utils.o
 .text          0x00000000        0x0 /alps/mprelease/MPload/ALPS.JB2.MP.V1.3_VANZO89_WET_JB2/source/alps/mediatek/preloader/out/download.o
 .data          0x00000000        0x0 /alps/mprelease/MPload/ALPS.JB2.MP.V1.3_VANZO89_WET_JB2/source/alps/mediatek/preloader/out/download.o
 .bss           0x00000000        0x0 /alps/mprelease/MPload/ALPS.JB2.MP.V1.3_VANZO89_WET_JB2/source/alps/mediatek/preloader/out/download.o
 .note.GNU-stack
                0x00000000        0x0 /alps/mprelease/MPload/ALPS.JB2.MP.V1.3_VANZO89_WET_JB2/source/alps/mediatek/preloader/out/download.o
 .text          0x00000000        0x0 /alps/mprelease/MPload/ALPS.JB2.MP.V1.3_VANZO89_WET_JB2/source/alps/mediatek/preloader/out/dramc_calib.o
 .data          0x00000000        0x0 /alps/mprelease/MPload/ALPS.JB2.MP.V1.3_VANZO89_WET_JB2/source/alps/mediatek/preloader/out/dramc_calib.o
 .bss           0x00000000        0x0 /alps/mprelease/MPload/ALPS.JB2.MP.V1.3_VANZO89_WET_JB2/source/alps/mediatek/preloader/out/dramc_calib.o
 .note.GNU-stack
                0x00000000        0x0 /alps/mprelease/MPload/ALPS.JB2.MP.V1.3_VANZO89_WET_JB2/source/alps/mediatek/preloader/out/dramc_calib.o
 .text          0x00000000        0x0 /alps/mprelease/MPload/ALPS.JB2.MP.V1.3_VANZO89_WET_JB2/source/alps/mediatek/preloader/out/dramc_dle_cal.o
 .bss           0x00000000        0x0 /alps/mprelease/MPload/ALPS.JB2.MP.V1.3_VANZO89_WET_JB2/source/alps/mediatek/preloader/out/dramc_dle_cal.o
 .text.dramc_ta1
                0x00000000      0x13c /alps/mprelease/MPload/ALPS.JB2.MP.V1.3_VANZO89_WET_JB2/source/alps/mediatek/preloader/out/dramc_dle_cal.o
 .text.dram_driving_factor_handler
                0x00000000        0x4 /alps/mprelease/MPload/ALPS.JB2.MP.V1.3_VANZO89_WET_JB2/source/alps/mediatek/preloader/out/dramc_dle_cal.o
 .text.dqso_dly_factor_handler
                0x00000000       0xcc /alps/mprelease/MPload/ALPS.JB2.MP.V1.3_VANZO89_WET_JB2/source/alps/mediatek/preloader/out/dramc_dle_cal.o
 .text.ett_print_dram_driving
                0x00000000        0x4 /alps/mprelease/MPload/ALPS.JB2.MP.V1.3_VANZO89_WET_JB2/source/alps/mediatek/preloader/out/dramc_dle_cal.o
 .text.ett_rextdn_sw_calibration
                0x00000000      0x228 /alps/mprelease/MPload/ALPS.JB2.MP.V1.3_VANZO89_WET_JB2/source/alps/mediatek/preloader/out/dramc_dle_cal.o
 .data.rel.rx_tuning_factors
                0x00000000       0x14 /alps/mprelease/MPload/ALPS.JB2.MP.V1.3_VANZO89_WET_JB2/source/alps/mediatek/preloader/out/dramc_dle_cal.o
 .data.rel.local.dram_driving_tbl
                0x00000000        0x8 /alps/mprelease/MPload/ALPS.JB2.MP.V1.3_VANZO89_WET_JB2/source/alps/mediatek/preloader/out/dramc_dle_cal.o
 .data.rel.local.driving_tbl
                0x00000000       0x18 /alps/mprelease/MPload/ALPS.JB2.MP.V1.3_VANZO89_WET_JB2/source/alps/mediatek/preloader/out/dramc_dle_cal.o
 .note.GNU-stack
                0x00000000        0x0 /alps/mprelease/MPload/ALPS.JB2.MP.V1.3_VANZO89_WET_JB2/source/alps/mediatek/preloader/out/dramc_dle_cal.o
 .text          0x00000000        0x0 /alps/mprelease/MPload/ALPS.JB2.MP.V1.3_VANZO89_WET_JB2/source/alps/mediatek/preloader/out/dramc_dqs_gw.o
 .bss           0x00000000        0x0 /alps/mprelease/MPload/ALPS.JB2.MP.V1.3_VANZO89_WET_JB2/source/alps/mediatek/preloader/out/dramc_dqs_gw.o
 .text.dramc_ta2
                0x00000000      0x20c /alps/mprelease/MPload/ALPS.JB2.MP.V1.3_VANZO89_WET_JB2/source/alps/mediatek/preloader/out/dramc_dqs_gw.o
 .text.ett_print_dqs_gw_after_finish_loop_n
                0x00000000        0x4 /alps/mprelease/MPload/ALPS.JB2.MP.V1.3_VANZO89_WET_JB2/source/alps/mediatek/preloader/out/dramc_dqs_gw.o
 .data.rel.dqs_gw_test_cases_2
                0x00000000       0x10 /alps/mprelease/MPload/ALPS.JB2.MP.V1.3_VANZO89_WET_JB2/source/alps/mediatek/preloader/out/dramc_dqs_gw.o
 .note.GNU-stack
                0x00000000        0x0 /alps/mprelease/MPload/ALPS.JB2.MP.V1.3_VANZO89_WET_JB2/source/alps/mediatek/preloader/out/dramc_dqs_gw.o
 .data          0x00000000        0x0 /alps/mprelease/MPload/ALPS.JB2.MP.V1.3_VANZO89_WET_JB2/source/alps/mediatek/preloader/out/eabi_idiv.o
 .bss           0x00000000        0x0 /alps/mprelease/MPload/ALPS.JB2.MP.V1.3_VANZO89_WET_JB2/source/alps/mediatek/preloader/out/eabi_idiv.o
 .data          0x00000000        0x0 /alps/mprelease/MPload/ALPS.JB2.MP.V1.3_VANZO89_WET_JB2/source/alps/mediatek/preloader/out/eabi.o
 .bss           0x00000000        0x0 /alps/mprelease/MPload/ALPS.JB2.MP.V1.3_VANZO89_WET_JB2/source/alps/mediatek/preloader/out/eabi.o
 .data          0x00000000        0x0 /alps/mprelease/MPload/ALPS.JB2.MP.V1.3_VANZO89_WET_JB2/source/alps/mediatek/preloader/out/eabi_uldivmod.o
 .bss           0x00000000        0x0 /alps/mprelease/MPload/ALPS.JB2.MP.V1.3_VANZO89_WET_JB2/source/alps/mediatek/preloader/out/eabi_uldivmod.o
 .text          0x00000000        0x0 /alps/mprelease/MPload/ALPS.JB2.MP.V1.3_VANZO89_WET_JB2/source/alps/mediatek/preloader/out/gpio.o
 .data          0x00000000        0x0 /alps/mprelease/MPload/ALPS.JB2.MP.V1.3_VANZO89_WET_JB2/source/alps/mediatek/preloader/out/gpio.o
 .bss           0x00000000        0x0 /alps/mprelease/MPload/ALPS.JB2.MP.V1.3_VANZO89_WET_JB2/source/alps/mediatek/preloader/out/gpio.o
 .text.mt_get_gpio_dir_chip
                0x00000000       0x3c /alps/mprelease/MPload/ALPS.JB2.MP.V1.3_VANZO89_WET_JB2/source/alps/mediatek/preloader/out/gpio.o
 .text.mt_get_gpio_pull_enable_chip
                0x00000000       0x9c /alps/mprelease/MPload/ALPS.JB2.MP.V1.3_VANZO89_WET_JB2/source/alps/mediatek/preloader/out/gpio.o
 .text.mt_get_gpio_pull_select_chip
                0x00000000       0x9c /alps/mprelease/MPload/ALPS.JB2.MP.V1.3_VANZO89_WET_JB2/source/alps/mediatek/preloader/out/gpio.o
 .text.mt_set_gpio_inversion_chip
                0x00000000       0xe0 /alps/mprelease/MPload/ALPS.JB2.MP.V1.3_VANZO89_WET_JB2/source/alps/mediatek/preloader/out/gpio.o
 .text.mt_get_gpio_inversion_chip
                0x00000000       0x78 /alps/mprelease/MPload/ALPS.JB2.MP.V1.3_VANZO89_WET_JB2/source/alps/mediatek/preloader/out/gpio.o
 .text.mt_set_gpio_out_chip
                0x00000000       0x80 /alps/mprelease/MPload/ALPS.JB2.MP.V1.3_VANZO89_WET_JB2/source/alps/mediatek/preloader/out/gpio.o
 .text.mt_get_gpio_out_chip
                0x00000000       0x40 /alps/mprelease/MPload/ALPS.JB2.MP.V1.3_VANZO89_WET_JB2/source/alps/mediatek/preloader/out/gpio.o
 .text.mt_get_gpio_in_chip
                0x00000000       0x40 /alps/mprelease/MPload/ALPS.JB2.MP.V1.3_VANZO89_WET_JB2/source/alps/mediatek/preloader/out/gpio.o
 .text.mt_get_gpio_mode_chip
                0x00000000       0xa8 /alps/mprelease/MPload/ALPS.JB2.MP.V1.3_VANZO89_WET_JB2/source/alps/mediatek/preloader/out/gpio.o
 .text.mt_set_clock_output
                0x00000000       0x4c /alps/mprelease/MPload/ALPS.JB2.MP.V1.3_VANZO89_WET_JB2/source/alps/mediatek/preloader/out/gpio.o
 .text.mt_get_clock_output
                0x00000000       0x6c /alps/mprelease/MPload/ALPS.JB2.MP.V1.3_VANZO89_WET_JB2/source/alps/mediatek/preloader/out/gpio.o
 .text.mt_get_gpio_dir_ext
                0x00000000       0x60 /alps/mprelease/MPload/ALPS.JB2.MP.V1.3_VANZO89_WET_JB2/source/alps/mediatek/preloader/out/gpio.o
 .text.mt_get_gpio_pull_enable_ext
                0x00000000       0x64 /alps/mprelease/MPload/ALPS.JB2.MP.V1.3_VANZO89_WET_JB2/source/alps/mediatek/preloader/out/gpio.o
 .text.mt_get_gpio_pull_select_ext
                0x00000000       0x64 /alps/mprelease/MPload/ALPS.JB2.MP.V1.3_VANZO89_WET_JB2/source/alps/mediatek/preloader/out/gpio.o
 .text.mt_set_gpio_inversion_ext
                0x00000000       0x74 /alps/mprelease/MPload/ALPS.JB2.MP.V1.3_VANZO89_WET_JB2/source/alps/mediatek/preloader/out/gpio.o
 .text.mt_get_gpio_inversion_ext
                0x00000000       0x64 /alps/mprelease/MPload/ALPS.JB2.MP.V1.3_VANZO89_WET_JB2/source/alps/mediatek/preloader/out/gpio.o
 .text.mt_set_gpio_out_ext
                0x00000000       0x74 /alps/mprelease/MPload/ALPS.JB2.MP.V1.3_VANZO89_WET_JB2/source/alps/mediatek/preloader/out/gpio.o
 .text.mt_get_gpio_out_ext
                0x00000000       0x64 /alps/mprelease/MPload/ALPS.JB2.MP.V1.3_VANZO89_WET_JB2/source/alps/mediatek/preloader/out/gpio.o
 .text.mt_get_gpio_in_ext
                0x00000000       0x64 /alps/mprelease/MPload/ALPS.JB2.MP.V1.3_VANZO89_WET_JB2/source/alps/mediatek/preloader/out/gpio.o
 .text.mt_get_gpio_mode_ext
                0x00000000       0x70 /alps/mprelease/MPload/ALPS.JB2.MP.V1.3_VANZO89_WET_JB2/source/alps/mediatek/preloader/out/gpio.o
 .text.mt_get_gpio_dir
                0x00000000       0x10 /alps/mprelease/MPload/ALPS.JB2.MP.V1.3_VANZO89_WET_JB2/source/alps/mediatek/preloader/out/gpio.o
 .text.mt_get_gpio_pull_enable
                0x00000000       0x10 /alps/mprelease/MPload/ALPS.JB2.MP.V1.3_VANZO89_WET_JB2/source/alps/mediatek/preloader/out/gpio.o
 .text.mt_get_gpio_pull_select
                0x00000000       0x10 /alps/mprelease/MPload/ALPS.JB2.MP.V1.3_VANZO89_WET_JB2/source/alps/mediatek/preloader/out/gpio.o
 .text.mt_set_gpio_inversion
                0x00000000       0x10 /alps/mprelease/MPload/ALPS.JB2.MP.V1.3_VANZO89_WET_JB2/source/alps/mediatek/preloader/out/gpio.o
 .text.mt_get_gpio_inversion
                0x00000000       0x10 /alps/mprelease/MPload/ALPS.JB2.MP.V1.3_VANZO89_WET_JB2/source/alps/mediatek/preloader/out/gpio.o
 .text.mt_set_gpio_out
                0x00000000       0x10 /alps/mprelease/MPload/ALPS.JB2.MP.V1.3_VANZO89_WET_JB2/source/alps/mediatek/preloader/out/gpio.o
 .text.mt_get_gpio_out
                0x00000000       0x10 /alps/mprelease/MPload/ALPS.JB2.MP.V1.3_VANZO89_WET_JB2/source/alps/mediatek/preloader/out/gpio.o
 .text.mt_get_gpio_in
                0x00000000       0x10 /alps/mprelease/MPload/ALPS.JB2.MP.V1.3_VANZO89_WET_JB2/source/alps/mediatek/preloader/out/gpio.o
 .text.mt_get_gpio_mode
                0x00000000       0x10 /alps/mprelease/MPload/ALPS.JB2.MP.V1.3_VANZO89_WET_JB2/source/alps/mediatek/preloader/out/gpio.o
 .rodata.str1.1
                0x00000000       0x12 /alps/mprelease/MPload/ALPS.JB2.MP.V1.3_VANZO89_WET_JB2/source/alps/mediatek/preloader/out/gpio.o
 .rodata.clkout_reg_addr
                0x00000000       0x18 /alps/mprelease/MPload/ALPS.JB2.MP.V1.3_VANZO89_WET_JB2/source/alps/mediatek/preloader/out/gpio.o
 .note.GNU-stack
                0x00000000        0x0 /alps/mprelease/MPload/ALPS.JB2.MP.V1.3_VANZO89_WET_JB2/source/alps/mediatek/preloader/out/gpio.o
 .text          0x00000000        0x0 /alps/mprelease/MPload/ALPS.JB2.MP.V1.3_VANZO89_WET_JB2/source/alps/mediatek/preloader/out/handshake_uart.o
 .bss           0x00000000        0x0 /alps/mprelease/MPload/ALPS.JB2.MP.V1.3_VANZO89_WET_JB2/source/alps/mediatek/preloader/out/handshake_uart.o
 .note.GNU-stack
                0x00000000        0x0 /alps/mprelease/MPload/ALPS.JB2.MP.V1.3_VANZO89_WET_JB2/source/alps/mediatek/preloader/out/handshake_uart.o
 .text          0x00000000        0x0 /alps/mprelease/MPload/ALPS.JB2.MP.V1.3_VANZO89_WET_JB2/source/alps/mediatek/preloader/out/handshake_usb.o
 .bss           0x00000000        0x0 /alps/mprelease/MPload/ALPS.JB2.MP.V1.3_VANZO89_WET_JB2/source/alps/mediatek/preloader/out/handshake_usb.o
 .note.GNU-stack
                0x00000000        0x0 /alps/mprelease/MPload/ALPS.JB2.MP.V1.3_VANZO89_WET_JB2/source/alps/mediatek/preloader/out/handshake_usb.o
 .text          0x00000000        0x0 /alps/mprelease/MPload/ALPS.JB2.MP.V1.3_VANZO89_WET_JB2/source/alps/mediatek/preloader/out/init.o
 .data          0x00000000        0x0 /alps/mprelease/MPload/ALPS.JB2.MP.V1.3_VANZO89_WET_JB2/source/alps/mediatek/preloader/out/init.o
 .bss           0x00000000        0x0 /alps/mprelease/MPload/ALPS.JB2.MP.V1.3_VANZO89_WET_JB2/source/alps/mediatek/preloader/out/init.o
 .text          0x00000000        0x0 /alps/mprelease/MPload/ALPS.JB2.MP.V1.3_VANZO89_WET_JB2/source/alps/mediatek/preloader/out/main.o
 .data          0x00000000        0x0 /alps/mprelease/MPload/ALPS.JB2.MP.V1.3_VANZO89_WET_JB2/source/alps/mediatek/preloader/out/main.o
 .bss           0x00000000        0x0 /alps/mprelease/MPload/ALPS.JB2.MP.V1.3_VANZO89_WET_JB2/source/alps/mediatek/preloader/out/main.o
 .note.GNU-stack
                0x00000000        0x0 /alps/mprelease/MPload/ALPS.JB2.MP.V1.3_VANZO89_WET_JB2/source/alps/mediatek/preloader/out/main.o
 .text          0x00000000       0xbc /alps/mprelease/MPload/ALPS.JB2.MP.V1.3_VANZO89_WET_JB2/source/alps/mediatek/preloader/out/memory_test.o
 .data          0x00000000        0x0 /alps/mprelease/MPload/ALPS.JB2.MP.V1.3_VANZO89_WET_JB2/source/alps/mediatek/preloader/out/memory_test.o
 .bss           0x00000000        0x0 /alps/mprelease/MPload/ALPS.JB2.MP.V1.3_VANZO89_WET_JB2/source/alps/mediatek/preloader/out/memory_test.o
 .text          0x00000000        0x0 /alps/mprelease/MPload/ALPS.JB2.MP.V1.3_VANZO89_WET_JB2/source/alps/mediatek/preloader/out/mmc_common_inter.o
 .data          0x00000000        0x0 /alps/mprelease/MPload/ALPS.JB2.MP.V1.3_VANZO89_WET_JB2/source/alps/mediatek/preloader/out/mmc_common_inter.o
 .bss           0x00000000        0x0 /alps/mprelease/MPload/ALPS.JB2.MP.V1.3_VANZO89_WET_JB2/source/alps/mediatek/preloader/out/mmc_common_inter.o
 .note.GNU-stack
                0x00000000        0x0 /alps/mprelease/MPload/ALPS.JB2.MP.V1.3_VANZO89_WET_JB2/source/alps/mediatek/preloader/out/mmc_common_inter.o
 .text          0x00000000        0x0 /alps/mprelease/MPload/ALPS.JB2.MP.V1.3_VANZO89_WET_JB2/source/alps/mediatek/preloader/out/mmc_core.o
 .data          0x00000000        0x0 /alps/mprelease/MPload/ALPS.JB2.MP.V1.3_VANZO89_WET_JB2/source/alps/mediatek/preloader/out/mmc_core.o
 .bss           0x00000000        0x0 /alps/mprelease/MPload/ALPS.JB2.MP.V1.3_VANZO89_WET_JB2/source/alps/mediatek/preloader/out/mmc_core.o
 .text.mmc_set_write_prot
                0x00000000       0x50 /alps/mprelease/MPload/ALPS.JB2.MP.V1.3_VANZO89_WET_JB2/source/alps/mediatek/preloader/out/mmc_core.o
 .text.mmc_clr_write_prot
                0x00000000       0x50 /alps/mprelease/MPload/ALPS.JB2.MP.V1.3_VANZO89_WET_JB2/source/alps/mediatek/preloader/out/mmc_core.o
 .text.mmc_send_write_prot
                0x00000000       0xa0 /alps/mprelease/MPload/ALPS.JB2.MP.V1.3_VANZO89_WET_JB2/source/alps/mediatek/preloader/out/mmc_core.o
 .text.mmc_send_write_prot_type
                0x00000000       0xa0 /alps/mprelease/MPload/ALPS.JB2.MP.V1.3_VANZO89_WET_JB2/source/alps/mediatek/preloader/out/mmc_core.o
 .text.mmc_erase_start
                0x00000000       0x84 /alps/mprelease/MPload/ALPS.JB2.MP.V1.3_VANZO89_WET_JB2/source/alps/mediatek/preloader/out/mmc_core.o
 .text.mmc_erase_end
                0x00000000       0x84 /alps/mprelease/MPload/ALPS.JB2.MP.V1.3_VANZO89_WET_JB2/source/alps/mediatek/preloader/out/mmc_core.o
 .text.mmc_erase
                0x00000000       0xe4 /alps/mprelease/MPload/ALPS.JB2.MP.V1.3_VANZO89_WET_JB2/source/alps/mediatek/preloader/out/mmc_core.o
 .text.mmc_get_wpg_size
                0x00000000       0x60 /alps/mprelease/MPload/ALPS.JB2.MP.V1.3_VANZO89_WET_JB2/source/alps/mediatek/preloader/out/mmc_core.o
 .text.mmc_set_ext_csd
                0x00000000       0x88 /alps/mprelease/MPload/ALPS.JB2.MP.V1.3_VANZO89_WET_JB2/source/alps/mediatek/preloader/out/mmc_core.o
 .text.mmc_set_erase_grp_def
                0x00000000       0x3c /alps/mprelease/MPload/ALPS.JB2.MP.V1.3_VANZO89_WET_JB2/source/alps/mediatek/preloader/out/mmc_core.o
 .text.mmc_set_gp_size
                0x00000000       0xb0 /alps/mprelease/MPload/ALPS.JB2.MP.V1.3_VANZO89_WET_JB2/source/alps/mediatek/preloader/out/mmc_core.o
 .text.mmc_set_enh_size
                0x00000000       0x94 /alps/mprelease/MPload/ALPS.JB2.MP.V1.3_VANZO89_WET_JB2/source/alps/mediatek/preloader/out/mmc_core.o
 .text.mmc_set_enh_start_addr
                0x00000000       0x80 /alps/mprelease/MPload/ALPS.JB2.MP.V1.3_VANZO89_WET_JB2/source/alps/mediatek/preloader/out/mmc_core.o
 .text.mmc_set_boot_bus
                0x00000000       0x38 /alps/mprelease/MPload/ALPS.JB2.MP.V1.3_VANZO89_WET_JB2/source/alps/mediatek/preloader/out/mmc_core.o
 .text.mmc_set_part_config
                0x00000000       0x2c /alps/mprelease/MPload/ALPS.JB2.MP.V1.3_VANZO89_WET_JB2/source/alps/mediatek/preloader/out/mmc_core.o
 .text.mmc_set_part_attr
                0x00000000       0x50 /alps/mprelease/MPload/ALPS.JB2.MP.V1.3_VANZO89_WET_JB2/source/alps/mediatek/preloader/out/mmc_core.o
 .text.mmc_set_part_compl
                0x00000000       0x2c /alps/mprelease/MPload/ALPS.JB2.MP.V1.3_VANZO89_WET_JB2/source/alps/mediatek/preloader/out/mmc_core.o
 .rodata        0x00000000        0x4 /alps/mprelease/MPload/ALPS.JB2.MP.V1.3_VANZO89_WET_JB2/source/alps/mediatek/preloader/out/mmc_core.o
 .note.GNU-stack
                0x00000000        0x0 /alps/mprelease/MPload/ALPS.JB2.MP.V1.3_VANZO89_WET_JB2/source/alps/mediatek/preloader/out/mmc_core.o
 .text          0x00000000        0x0 /alps/mprelease/MPload/ALPS.JB2.MP.V1.3_VANZO89_WET_JB2/source/alps/mediatek/preloader/out/mmc_test.o
 .data          0x00000000        0x0 /alps/mprelease/MPload/ALPS.JB2.MP.V1.3_VANZO89_WET_JB2/source/alps/mediatek/preloader/out/mmc_test.o
 .bss           0x00000000        0x0 /alps/mprelease/MPload/ALPS.JB2.MP.V1.3_VANZO89_WET_JB2/source/alps/mediatek/preloader/out/mmc_test.o
 .note.GNU-stack
                0x00000000        0x0 /alps/mprelease/MPload/ALPS.JB2.MP.V1.3_VANZO89_WET_JB2/source/alps/mediatek/preloader/out/mmc_test.o
 .text          0x00000000        0x0 /alps/mprelease/MPload/ALPS.JB2.MP.V1.3_VANZO89_WET_JB2/source/alps/mediatek/preloader/out/msdc.o
 .data          0x00000000        0x0 /alps/mprelease/MPload/ALPS.JB2.MP.V1.3_VANZO89_WET_JB2/source/alps/mediatek/preloader/out/msdc.o
 .bss           0x00000000        0x0 /alps/mprelease/MPload/ALPS.JB2.MP.V1.3_VANZO89_WET_JB2/source/alps/mediatek/preloader/out/msdc.o
 .text.msdc_dump_card_status
                0x00000000        0x4 /alps/mprelease/MPload/ALPS.JB2.MP.V1.3_VANZO89_WET_JB2/source/alps/mediatek/preloader/out/msdc.o
 .text.msdc_dump_ocr_reg
                0x00000000        0x4 /alps/mprelease/MPload/ALPS.JB2.MP.V1.3_VANZO89_WET_JB2/source/alps/mediatek/preloader/out/msdc.o
 .text.msdc_dump_io_resp
                0x00000000        0x4 /alps/mprelease/MPload/ALPS.JB2.MP.V1.3_VANZO89_WET_JB2/source/alps/mediatek/preloader/out/msdc.o
 .text.msdc_dump_rca_resp
                0x00000000        0x4 /alps/mprelease/MPload/ALPS.JB2.MP.V1.3_VANZO89_WET_JB2/source/alps/mediatek/preloader/out/msdc.o
 .text.msdc_intr_mask
                0x00000000       0x14 /alps/mprelease/MPload/ALPS.JB2.MP.V1.3_VANZO89_WET_JB2/source/alps/mediatek/preloader/out/msdc.o
 .note.GNU-stack
                0x00000000        0x0 /alps/mprelease/MPload/ALPS.JB2.MP.V1.3_VANZO89_WET_JB2/source/alps/mediatek/preloader/out/msdc.o
 .text          0x00000000        0x0 /alps/mprelease/MPload/ALPS.JB2.MP.V1.3_VANZO89_WET_JB2/source/alps/mediatek/preloader/out/msdc_utils.o
 .data          0x00000000        0x0 /alps/mprelease/MPload/ALPS.JB2.MP.V1.3_VANZO89_WET_JB2/source/alps/mediatek/preloader/out/msdc_utils.o
 .bss           0x00000000        0x0 /alps/mprelease/MPload/ALPS.JB2.MP.V1.3_VANZO89_WET_JB2/source/alps/mediatek/preloader/out/msdc_utils.o
 .text.msdc_ntohl
                0x00000000       0x2c /alps/mprelease/MPload/ALPS.JB2.MP.V1.3_VANZO89_WET_JB2/source/alps/mediatek/preloader/out/msdc_utils.o
 .note.GNU-stack
                0x00000000        0x0 /alps/mprelease/MPload/ALPS.JB2.MP.V1.3_VANZO89_WET_JB2/source/alps/mediatek/preloader/out/msdc_utils.o
 .text          0x00000000        0x0 /alps/mprelease/MPload/ALPS.JB2.MP.V1.3_VANZO89_WET_JB2/source/alps/mediatek/preloader/out/mt6577_cpu_power.o
 .data          0x00000000        0x0 /alps/mprelease/MPload/ALPS.JB2.MP.V1.3_VANZO89_WET_JB2/source/alps/mediatek/preloader/out/mt6577_cpu_power.o
 .bss           0x00000000        0x0 /alps/mprelease/MPload/ALPS.JB2.MP.V1.3_VANZO89_WET_JB2/source/alps/mediatek/preloader/out/mt6577_cpu_power.o
 .text.power_off_cpu1
                0x00000000       0xb4 /alps/mprelease/MPload/ALPS.JB2.MP.V1.3_VANZO89_WET_JB2/source/alps/mediatek/preloader/out/mt6577_cpu_power.o
 .note.GNU-stack
                0x00000000        0x0 /alps/mprelease/MPload/ALPS.JB2.MP.V1.3_VANZO89_WET_JB2/source/alps/mediatek/preloader/out/mt6577_cpu_power.o
 .text          0x00000000        0x0 /alps/mprelease/MPload/ALPS.JB2.MP.V1.3_VANZO89_WET_JB2/source/alps/mediatek/preloader/out/mt6577_pdn.o
 .data          0x00000000        0x0 /alps/mprelease/MPload/ALPS.JB2.MP.V1.3_VANZO89_WET_JB2/source/alps/mediatek/preloader/out/mt6577_pdn.o
 .bss           0x00000000        0x0 /alps/mprelease/MPload/ALPS.JB2.MP.V1.3_VANZO89_WET_JB2/source/alps/mediatek/preloader/out/mt6577_pdn.o
 .text.PDN_Get_Peri_Status
                0x00000000       0x1c /alps/mprelease/MPload/ALPS.JB2.MP.V1.3_VANZO89_WET_JB2/source/alps/mediatek/preloader/out/mt6577_pdn.o
 .text.PDN_Power_CONA_DOWN
                0x00000000        0x4 /alps/mprelease/MPload/ALPS.JB2.MP.V1.3_VANZO89_WET_JB2/source/alps/mediatek/preloader/out/mt6577_pdn.o
 .text.PDN_Power_CONB_DOWN
                0x00000000        0x4 /alps/mprelease/MPload/ALPS.JB2.MP.V1.3_VANZO89_WET_JB2/source/alps/mediatek/preloader/out/mt6577_pdn.o
 .note.GNU-stack
                0x00000000        0x0 /alps/mprelease/MPload/ALPS.JB2.MP.V1.3_VANZO89_WET_JB2/source/alps/mediatek/preloader/out/mt6577_pdn.o
 .text          0x00000000        0x0 /alps/mprelease/MPload/ALPS.JB2.MP.V1.3_VANZO89_WET_JB2/source/alps/mediatek/preloader/out/mt_emi.o
 .data          0x00000000        0x0 /alps/mprelease/MPload/ALPS.JB2.MP.V1.3_VANZO89_WET_JB2/source/alps/mediatek/preloader/out/mt_emi.o
 .bss           0x00000000        0x0 /alps/mprelease/MPload/ALPS.JB2.MP.V1.3_VANZO89_WET_JB2/source/alps/mediatek/preloader/out/mt_emi.o
 .text.print_DBG_info
                0x00000000       0x7c /alps/mprelease/MPload/ALPS.JB2.MP.V1.3_VANZO89_WET_JB2/source/alps/mediatek/preloader/out/mt_emi.o
 .bss.ddr_type  0x00000000        0x4 /alps/mprelease/MPload/ALPS.JB2.MP.V1.3_VANZO89_WET_JB2/source/alps/mediatek/preloader/out/mt_emi.o
 .note.GNU-stack
                0x00000000        0x0 /alps/mprelease/MPload/ALPS.JB2.MP.V1.3_VANZO89_WET_JB2/source/alps/mediatek/preloader/out/mt_emi.o
 .text          0x00000000        0x0 /alps/mprelease/MPload/ALPS.JB2.MP.V1.3_VANZO89_WET_JB2/source/alps/mediatek/preloader/out/mt_i2c.o
 .data          0x00000000        0x0 /alps/mprelease/MPload/ALPS.JB2.MP.V1.3_VANZO89_WET_JB2/source/alps/mediatek/preloader/out/mt_i2c.o
 .bss           0x00000000        0x0 /alps/mprelease/MPload/ALPS.JB2.MP.V1.3_VANZO89_WET_JB2/source/alps/mediatek/preloader/out/mt_i2c.o
 .text.mt_i2c_dump_info.isra.0
                0x00000000      0x1d8 /alps/mprelease/MPload/ALPS.JB2.MP.V1.3_VANZO89_WET_JB2/source/alps/mediatek/preloader/out/mt_i2c.o
 .text.mt_i2c_set_speed
                0x00000000      0x1d8 /alps/mprelease/MPload/ALPS.JB2.MP.V1.3_VANZO89_WET_JB2/source/alps/mediatek/preloader/out/mt_i2c.o
 .text.mt_i2c_init
                0x00000000        0x8 /alps/mprelease/MPload/ALPS.JB2.MP.V1.3_VANZO89_WET_JB2/source/alps/mediatek/preloader/out/mt_i2c.o
 .text.mt_i2c_deinit
                0x00000000       0x8c /alps/mprelease/MPload/ALPS.JB2.MP.V1.3_VANZO89_WET_JB2/source/alps/mediatek/preloader/out/mt_i2c.o
 .text.mt_i2c_read
                0x00000000      0x1e8 /alps/mprelease/MPload/ALPS.JB2.MP.V1.3_VANZO89_WET_JB2/source/alps/mediatek/preloader/out/mt_i2c.o
 .text.mt_i2c_write
                0x00000000      0x1c0 /alps/mprelease/MPload/ALPS.JB2.MP.V1.3_VANZO89_WET_JB2/source/alps/mediatek/preloader/out/mt_i2c.o
 .text.i2c_v1_deinit
                0x00000000        0x8 /alps/mprelease/MPload/ALPS.JB2.MP.V1.3_VANZO89_WET_JB2/source/alps/mediatek/preloader/out/mt_i2c.o
 .text.mt_i2c_read_new
                0x00000000      0x2a8 /alps/mprelease/MPload/ALPS.JB2.MP.V1.3_VANZO89_WET_JB2/source/alps/mediatek/preloader/out/mt_i2c.o
 .text.mt_i2c_write_new
                0x00000000      0x25c /alps/mprelease/MPload/ALPS.JB2.MP.V1.3_VANZO89_WET_JB2/source/alps/mediatek/preloader/out/mt_i2c.o
 .text.mt_i2c_write_read_new
                0x00000000      0x29c /alps/mprelease/MPload/ALPS.JB2.MP.V1.3_VANZO89_WET_JB2/source/alps/mediatek/preloader/out/mt_i2c.o
 .text.mt_i2c_test_eeprom
                0x00000000      0x114 /alps/mprelease/MPload/ALPS.JB2.MP.V1.3_VANZO89_WET_JB2/source/alps/mediatek/preloader/out/mt_i2c.o
 .text.mt_i2c_test
                0x00000000       0x58 /alps/mprelease/MPload/ALPS.JB2.MP.V1.3_VANZO89_WET_JB2/source/alps/mediatek/preloader/out/mt_i2c.o
 .rodata.str1.1
                0x00000000      0x6af /alps/mprelease/MPload/ALPS.JB2.MP.V1.3_VANZO89_WET_JB2/source/alps/mediatek/preloader/out/mt_i2c.o
 .note.GNU-stack
                0x00000000        0x0 /alps/mprelease/MPload/ALPS.JB2.MP.V1.3_VANZO89_WET_JB2/source/alps/mediatek/preloader/out/mt_i2c.o
 .text          0x00000000        0x0 /alps/mprelease/MPload/ALPS.JB2.MP.V1.3_VANZO89_WET_JB2/source/alps/mediatek/preloader/out/mtk_key.o
 .data          0x00000000        0x0 /alps/mprelease/MPload/ALPS.JB2.MP.V1.3_VANZO89_WET_JB2/source/alps/mediatek/preloader/out/mtk_key.o
 .bss           0x00000000        0x0 /alps/mprelease/MPload/ALPS.JB2.MP.V1.3_VANZO89_WET_JB2/source/alps/mediatek/preloader/out/mtk_key.o
 .text.disable_PMIC_kpd_clock
                0x00000000       0x34 /alps/mprelease/MPload/ALPS.JB2.MP.V1.3_VANZO89_WET_JB2/source/alps/mediatek/preloader/out/mtk_key.o
 .note.GNU-stack
                0x00000000        0x0 /alps/mprelease/MPload/ALPS.JB2.MP.V1.3_VANZO89_WET_JB2/source/alps/mediatek/preloader/out/mtk_key.o
 .text          0x00000000        0x0 /alps/mprelease/MPload/ALPS.JB2.MP.V1.3_VANZO89_WET_JB2/source/alps/mediatek/preloader/out/mtk_pll.o
 .data          0x00000000        0x0 /alps/mprelease/MPload/ALPS.JB2.MP.V1.3_VANZO89_WET_JB2/source/alps/mediatek/preloader/out/mtk_pll.o
 .bss           0x00000000        0x0 /alps/mprelease/MPload/ALPS.JB2.MP.V1.3_VANZO89_WET_JB2/source/alps/mediatek/preloader/out/mtk_pll.o
 .text.mt_get_bus_freq
                0x00000000       0xbc /alps/mprelease/MPload/ALPS.JB2.MP.V1.3_VANZO89_WET_JB2/source/alps/mediatek/preloader/out/mtk_pll.o
 .note.GNU-stack
                0x00000000        0x0 /alps/mprelease/MPload/ALPS.JB2.MP.V1.3_VANZO89_WET_JB2/source/alps/mediatek/preloader/out/mtk_pll.o
 .text          0x00000000        0x0 /alps/mprelease/MPload/ALPS.JB2.MP.V1.3_VANZO89_WET_JB2/source/alps/mediatek/preloader/out/mtk_pmic_6320.o
 .data          0x00000000        0x0 /alps/mprelease/MPload/ALPS.JB2.MP.V1.3_VANZO89_WET_JB2/source/alps/mediatek/preloader/out/mtk_pmic_6320.o
 .bss           0x00000000        0x0 /alps/mprelease/MPload/ALPS.JB2.MP.V1.3_VANZO89_WET_JB2/source/alps/mediatek/preloader/out/mtk_pmic_6320.o
 .text.get_pmic6320_chip_version
                0x00000000       0x24 /alps/mprelease/MPload/ALPS.JB2.MP.V1.3_VANZO89_WET_JB2/source/alps/mediatek/preloader/out/mtk_pmic_6320.o
 .text.hqa_pmic_voltage_read
                0x00000000       0xa8 /alps/mprelease/MPload/ALPS.JB2.MP.V1.3_VANZO89_WET_JB2/source/alps/mediatek/preloader/out/mtk_pmic_6320.o
 .text.hqa_pmic_voltage_adjust
                0x00000000       0x38 /alps/mprelease/MPload/ALPS.JB2.MP.V1.3_VANZO89_WET_JB2/source/alps/mediatek/preloader/out/mtk_pmic_6320.o
 .note.GNU-stack
                0x00000000        0x0 /alps/mprelease/MPload/ALPS.JB2.MP.V1.3_VANZO89_WET_JB2/source/alps/mediatek/preloader/out/mtk_pmic_6320.o
 .text          0x00000000        0x0 /alps/mprelease/MPload/ALPS.JB2.MP.V1.3_VANZO89_WET_JB2/source/alps/mediatek/preloader/out/mtk_timer.o
 .data          0x00000000        0x0 /alps/mprelease/MPload/ALPS.JB2.MP.V1.3_VANZO89_WET_JB2/source/alps/mediatek/preloader/out/mtk_timer.o
 .bss           0x00000000        0x0 /alps/mprelease/MPload/ALPS.JB2.MP.V1.3_VANZO89_WET_JB2/source/alps/mediatek/preloader/out/mtk_timer.o
 .note.GNU-stack
                0x00000000        0x0 /alps/mprelease/MPload/ALPS.JB2.MP.V1.3_VANZO89_WET_JB2/source/alps/mediatek/preloader/out/mtk_timer.o
 .text          0x00000000        0x0 /alps/mprelease/MPload/ALPS.JB2.MP.V1.3_VANZO89_WET_JB2/source/alps/mediatek/preloader/out/mtk_wdt.o
 .data          0x00000000        0x0 /alps/mprelease/MPload/ALPS.JB2.MP.V1.3_VANZO89_WET_JB2/source/alps/mediatek/preloader/out/mtk_wdt.o
 .bss           0x00000000        0x0 /alps/mprelease/MPload/ALPS.JB2.MP.V1.3_VANZO89_WET_JB2/source/alps/mediatek/preloader/out/mtk_wdt.o
 .text.mtk_wdt_sw_reset
                0x00000000       0x58 /alps/mprelease/MPload/ALPS.JB2.MP.V1.3_VANZO89_WET_JB2/source/alps/mediatek/preloader/out/mtk_wdt.o
 .text.mtk_is_rgu_trigger_reset
                0x00000000       0x18 /alps/mprelease/MPload/ALPS.JB2.MP.V1.3_VANZO89_WET_JB2/source/alps/mediatek/preloader/out/mtk_wdt.o
 .note.GNU-stack
                0x00000000        0x0 /alps/mprelease/MPload/ALPS.JB2.MP.V1.3_VANZO89_WET_JB2/source/alps/mediatek/preloader/out/mtk_wdt.o
 .text          0x00000000        0x0 /alps/mprelease/MPload/ALPS.JB2.MP.V1.3_VANZO89_WET_JB2/source/alps/mediatek/preloader/out/mt_memory.o
 .data          0x00000000        0x0 /alps/mprelease/MPload/ALPS.JB2.MP.V1.3_VANZO89_WET_JB2/source/alps/mediatek/preloader/out/mt_memory.o
 .bss           0x00000000        0x0 /alps/mprelease/MPload/ALPS.JB2.MP.V1.3_VANZO89_WET_JB2/source/alps/mediatek/preloader/out/mt_memory.o
 .note.GNU-stack
                0x00000000        0x0 /alps/mprelease/MPload/ALPS.JB2.MP.V1.3_VANZO89_WET_JB2/source/alps/mediatek/preloader/out/mt_memory.o
 .text          0x00000000        0x0 /alps/mprelease/MPload/ALPS.JB2.MP.V1.3_VANZO89_WET_JB2/source/alps/mediatek/preloader/out/mt_pmic_wrap_init.o
 .data          0x00000000        0x0 /alps/mprelease/MPload/ALPS.JB2.MP.V1.3_VANZO89_WET_JB2/source/alps/mediatek/preloader/out/mt_pmic_wrap_init.o
 .bss           0x00000000        0x0 /alps/mprelease/MPload/ALPS.JB2.MP.V1.3_VANZO89_WET_JB2/source/alps/mediatek/preloader/out/mt_pmic_wrap_init.o
 .note.GNU-stack
                0x00000000        0x0 /alps/mprelease/MPload/ALPS.JB2.MP.V1.3_VANZO89_WET_JB2/source/alps/mediatek/preloader/out/mt_pmic_wrap_init.o
 .text          0x00000000        0x0 /alps/mprelease/MPload/ALPS.JB2.MP.V1.3_VANZO89_WET_JB2/source/alps/mediatek/preloader/out/mt_rtc.o
 .data          0x00000000        0x0 /alps/mprelease/MPload/ALPS.JB2.MP.V1.3_VANZO89_WET_JB2/source/alps/mediatek/preloader/out/mt_rtc.o
 .bss           0x00000000        0x0 /alps/mprelease/MPload/ALPS.JB2.MP.V1.3_VANZO89_WET_JB2/source/alps/mediatek/preloader/out/mt_rtc.o
 .text.rtc_rdwr_uart_bits
                0x00000000       0x60 /alps/mprelease/MPload/ALPS.JB2.MP.V1.3_VANZO89_WET_JB2/source/alps/mediatek/preloader/out/mt_rtc.o
 .note.GNU-stack
                0x00000000        0x0 /alps/mprelease/MPload/ALPS.JB2.MP.V1.3_VANZO89_WET_JB2/source/alps/mediatek/preloader/out/mt_rtc.o
 .text          0x00000000        0x0 /alps/mprelease/MPload/ALPS.JB2.MP.V1.3_VANZO89_WET_JB2/source/alps/mediatek/preloader/out/mt_usbd.o
 .data          0x00000000        0x0 /alps/mprelease/MPload/ALPS.JB2.MP.V1.3_VANZO89_WET_JB2/source/alps/mediatek/preloader/out/mt_usbd.o
 .bss           0x00000000        0x0 /alps/mprelease/MPload/ALPS.JB2.MP.V1.3_VANZO89_WET_JB2/source/alps/mediatek/preloader/out/mt_usbd.o
 .text.udc_disable
                0x00000000        0x4 /alps/mprelease/MPload/ALPS.JB2.MP.V1.3_VANZO89_WET_JB2/source/alps/mediatek/preloader/out/mt_usbd.o
 .note.GNU-stack
                0x00000000        0x0 /alps/mprelease/MPload/ALPS.JB2.MP.V1.3_VANZO89_WET_JB2/source/alps/mediatek/preloader/out/mt_usbd.o
 .text          0x00000000        0x0 /alps/mprelease/MPload/ALPS.JB2.MP.V1.3_VANZO89_WET_JB2/source/alps/mediatek/preloader/out/mt_usbphy.o
 .data          0x00000000        0x0 /alps/mprelease/MPload/ALPS.JB2.MP.V1.3_VANZO89_WET_JB2/source/alps/mediatek/preloader/out/mt_usbphy.o
 .bss           0x00000000        0x0 /alps/mprelease/MPload/ALPS.JB2.MP.V1.3_VANZO89_WET_JB2/source/alps/mediatek/preloader/out/mt_usbphy.o
 .note.GNU-stack
                0x00000000        0x0 /alps/mprelease/MPload/ALPS.JB2.MP.V1.3_VANZO89_WET_JB2/source/alps/mediatek/preloader/out/mt_usbphy.o
 .text          0x00000000        0x0 /alps/mprelease/MPload/ALPS.JB2.MP.V1.3_VANZO89_WET_JB2/source/alps/mediatek/preloader/out/mt_usbtty.o
 .data          0x00000000        0x0 /alps/mprelease/MPload/ALPS.JB2.MP.V1.3_VANZO89_WET_JB2/source/alps/mediatek/preloader/out/mt_usbtty.o
 .bss           0x00000000        0x0 /alps/mprelease/MPload/ALPS.JB2.MP.V1.3_VANZO89_WET_JB2/source/alps/mediatek/preloader/out/mt_usbtty.o
 .text.mt_usbtty_tstc
                0x00000000       0x20 /alps/mprelease/MPload/ALPS.JB2.MP.V1.3_VANZO89_WET_JB2/source/alps/mediatek/preloader/out/mt_usbtty.o
 .text.mt_usbtty_getc
                0x00000000       0x3c /alps/mprelease/MPload/ALPS.JB2.MP.V1.3_VANZO89_WET_JB2/source/alps/mediatek/preloader/out/mt_usbtty.o
 .text.mt_usbtty_putc
                0x00000000       0x54 /alps/mprelease/MPload/ALPS.JB2.MP.V1.3_VANZO89_WET_JB2/source/alps/mediatek/preloader/out/mt_usbtty.o
 .bss.serialstate
                0x00000000        0x2 /alps/mprelease/MPload/ALPS.JB2.MP.V1.3_VANZO89_WET_JB2/source/alps/mediatek/preloader/out/mt_usbtty.o
 .note.GNU-stack
                0x00000000        0x0 /alps/mprelease/MPload/ALPS.JB2.MP.V1.3_VANZO89_WET_JB2/source/alps/mediatek/preloader/out/mt_usbtty.o
 .text          0x00000000        0x0 /alps/mprelease/MPload/ALPS.JB2.MP.V1.3_VANZO89_WET_JB2/source/alps/mediatek/preloader/out/partition_mt.o
 .data          0x00000000        0x0 /alps/mprelease/MPload/ALPS.JB2.MP.V1.3_VANZO89_WET_JB2/source/alps/mediatek/preloader/out/partition_mt.o
 .bss           0x00000000        0x0 /alps/mprelease/MPload/ALPS.JB2.MP.V1.3_VANZO89_WET_JB2/source/alps/mediatek/preloader/out/partition_mt.o
 .bss.page_buf  0x00000000     0x1080 /alps/mprelease/MPload/ALPS.JB2.MP.V1.3_VANZO89_WET_JB2/source/alps/mediatek/preloader/out/partition_mt.o
 .note.GNU-stack
                0x00000000        0x0 /alps/mprelease/MPload/ALPS.JB2.MP.V1.3_VANZO89_WET_JB2/source/alps/mediatek/preloader/out/partition_mt.o
 .text          0x00000000        0x0 /alps/mprelease/MPload/ALPS.JB2.MP.V1.3_VANZO89_WET_JB2/source/alps/mediatek/preloader/out/part.o
 .data          0x00000000        0x0 /alps/mprelease/MPload/ALPS.JB2.MP.V1.3_VANZO89_WET_JB2/source/alps/mediatek/preloader/out/part.o
 .bss           0x00000000        0x0 /alps/mprelease/MPload/ALPS.JB2.MP.V1.3_VANZO89_WET_JB2/source/alps/mediatek/preloader/out/part.o
 .note.GNU-stack
                0x00000000        0x0 /alps/mprelease/MPload/ALPS.JB2.MP.V1.3_VANZO89_WET_JB2/source/alps/mediatek/preloader/out/part.o
 .text          0x00000000        0x0 /alps/mprelease/MPload/ALPS.JB2.MP.V1.3_VANZO89_WET_JB2/source/alps/mediatek/preloader/out/platform.o
 .data          0x00000000        0x0 /alps/mprelease/MPload/ALPS.JB2.MP.V1.3_VANZO89_WET_JB2/source/alps/mediatek/preloader/out/platform.o
 .bss           0x00000000        0x0 /alps/mprelease/MPload/ALPS.JB2.MP.V1.3_VANZO89_WET_JB2/source/alps/mediatek/preloader/out/platform.o
 .text.platform_set_dl_boot_args
                0x00000000       0x24 /alps/mprelease/MPload/ALPS.JB2.MP.V1.3_VANZO89_WET_JB2/source/alps/mediatek/preloader/out/platform.o
 .bss.g_boot_dev
                0x00000000       0x20 /alps/mprelease/MPload/ALPS.JB2.MP.V1.3_VANZO89_WET_JB2/source/alps/mediatek/preloader/out/platform.o
 .note.GNU-stack
                0x00000000        0x0 /alps/mprelease/MPload/ALPS.JB2.MP.V1.3_VANZO89_WET_JB2/source/alps/mediatek/preloader/out/platform.o
 .text          0x00000000        0x0 /alps/mprelease/MPload/ALPS.JB2.MP.V1.3_VANZO89_WET_JB2/source/alps/mediatek/preloader/out/print.o
 .data          0x00000000        0x0 /alps/mprelease/MPload/ALPS.JB2.MP.V1.3_VANZO89_WET_JB2/source/alps/mediatek/preloader/out/print.o
 .bss           0x00000000        0x0 /alps/mprelease/MPload/ALPS.JB2.MP.V1.3_VANZO89_WET_JB2/source/alps/mediatek/preloader/out/print.o
 .note.GNU-stack
                0x00000000        0x0 /alps/mprelease/MPload/ALPS.JB2.MP.V1.3_VANZO89_WET_JB2/source/alps/mediatek/preloader/out/print.o
 .text          0x00000000        0x0 /alps/mprelease/MPload/ALPS.JB2.MP.V1.3_VANZO89_WET_JB2/source/alps/mediatek/preloader/out/sec_auth.o
 .data          0x00000000        0x0 /alps/mprelease/MPload/ALPS.JB2.MP.V1.3_VANZO89_WET_JB2/source/alps/mediatek/preloader/out/sec_auth.o
 .bss           0x00000000        0x0 /alps/mprelease/MPload/ALPS.JB2.MP.V1.3_VANZO89_WET_JB2/source/alps/mediatek/preloader/out/sec_auth.o
 .note.GNU-stack
                0x00000000        0x0 /alps/mprelease/MPload/ALPS.JB2.MP.V1.3_VANZO89_WET_JB2/source/alps/mediatek/preloader/out/sec_auth.o
 .text          0x00000000        0x0 /alps/mprelease/MPload/ALPS.JB2.MP.V1.3_VANZO89_WET_JB2/source/alps/mediatek/preloader/out/sec_boot.o
 .data          0x00000000        0x0 /alps/mprelease/MPload/ALPS.JB2.MP.V1.3_VANZO89_WET_JB2/source/alps/mediatek/preloader/out/sec_boot.o
 .bss           0x00000000        0x0 /alps/mprelease/MPload/ALPS.JB2.MP.V1.3_VANZO89_WET_JB2/source/alps/mediatek/preloader/out/sec_boot.o
 .note.GNU-stack
                0x00000000        0x0 /alps/mprelease/MPload/ALPS.JB2.MP.V1.3_VANZO89_WET_JB2/source/alps/mediatek/preloader/out/sec_boot.o
 .text          0x00000000        0x0 /alps/mprelease/MPload/ALPS.JB2.MP.V1.3_VANZO89_WET_JB2/source/alps/mediatek/preloader/out/sec_ctrl.o
 .data          0x00000000        0x0 /alps/mprelease/MPload/ALPS.JB2.MP.V1.3_VANZO89_WET_JB2/source/alps/mediatek/preloader/out/sec_ctrl.o
 .bss           0x00000000        0x0 /alps/mprelease/MPload/ALPS.JB2.MP.V1.3_VANZO89_WET_JB2/source/alps/mediatek/preloader/out/sec_ctrl.o
 .note.GNU-stack
                0x00000000        0x0 /alps/mprelease/MPload/ALPS.JB2.MP.V1.3_VANZO89_WET_JB2/source/alps/mediatek/preloader/out/sec_ctrl.o
 .text          0x00000000        0x0 /alps/mprelease/MPload/ALPS.JB2.MP.V1.3_VANZO89_WET_JB2/source/alps/mediatek/preloader/out/sec_flashtool_cfg.o
 .data          0x00000000        0x0 /alps/mprelease/MPload/ALPS.JB2.MP.V1.3_VANZO89_WET_JB2/source/alps/mediatek/preloader/out/sec_flashtool_cfg.o
 .bss           0x00000000        0x0 /alps/mprelease/MPload/ALPS.JB2.MP.V1.3_VANZO89_WET_JB2/source/alps/mediatek/preloader/out/sec_flashtool_cfg.o
 .note.GNU-stack
                0x00000000        0x0 /alps/mprelease/MPload/ALPS.JB2.MP.V1.3_VANZO89_WET_JB2/source/alps/mediatek/preloader/out/sec_flashtool_cfg.o
 .text          0x00000000        0x0 /alps/mprelease/MPload/ALPS.JB2.MP.V1.3_VANZO89_WET_JB2/source/alps/mediatek/preloader/out/sec_key.o
 .data          0x00000000        0x0 /alps/mprelease/MPload/ALPS.JB2.MP.V1.3_VANZO89_WET_JB2/source/alps/mediatek/preloader/out/sec_key.o
 .bss           0x00000000        0x0 /alps/mprelease/MPload/ALPS.JB2.MP.V1.3_VANZO89_WET_JB2/source/alps/mediatek/preloader/out/sec_key.o
 .note.GNU-stack
                0x00000000        0x0 /alps/mprelease/MPload/ALPS.JB2.MP.V1.3_VANZO89_WET_JB2/source/alps/mediatek/preloader/out/sec_key.o
 .text          0x00000000        0x0 /alps/mprelease/MPload/ALPS.JB2.MP.V1.3_VANZO89_WET_JB2/source/alps/mediatek/preloader/out/sec.o
 .data          0x00000000        0x0 /alps/mprelease/MPload/ALPS.JB2.MP.V1.3_VANZO89_WET_JB2/source/alps/mediatek/preloader/out/sec.o
 .bss           0x00000000        0x0 /alps/mprelease/MPload/ALPS.JB2.MP.V1.3_VANZO89_WET_JB2/source/alps/mediatek/preloader/out/sec.o
 .note.GNU-stack
                0x00000000        0x0 /alps/mprelease/MPload/ALPS.JB2.MP.V1.3_VANZO89_WET_JB2/source/alps/mediatek/preloader/out/sec.o
 .text          0x00000000        0x0 /alps/mprelease/MPload/ALPS.JB2.MP.V1.3_VANZO89_WET_JB2/source/alps/mediatek/preloader/out/sec_region.o
 .data          0x00000000        0x0 /alps/mprelease/MPload/ALPS.JB2.MP.V1.3_VANZO89_WET_JB2/source/alps/mediatek/preloader/out/sec_region.o
 .bss           0x00000000        0x0 /alps/mprelease/MPload/ALPS.JB2.MP.V1.3_VANZO89_WET_JB2/source/alps/mediatek/preloader/out/sec_region.o
 .text.da_region_check
                0x00000000       0x20 /alps/mprelease/MPload/ALPS.JB2.MP.V1.3_VANZO89_WET_JB2/source/alps/mediatek/preloader/out/sec_region.o
 .note.GNU-stack
                0x00000000        0x0 /alps/mprelease/MPload/ALPS.JB2.MP.V1.3_VANZO89_WET_JB2/source/alps/mediatek/preloader/out/sec_region.o
 .text          0x00000000        0x0 /alps/mprelease/MPload/ALPS.JB2.MP.V1.3_VANZO89_WET_JB2/source/alps/mediatek/preloader/out/sec_rom_info.o
 .data          0x00000000        0x0 /alps/mprelease/MPload/ALPS.JB2.MP.V1.3_VANZO89_WET_JB2/source/alps/mediatek/preloader/out/sec_rom_info.o
 .bss           0x00000000        0x0 /alps/mprelease/MPload/ALPS.JB2.MP.V1.3_VANZO89_WET_JB2/source/alps/mediatek/preloader/out/sec_rom_info.o
 .note.GNU-stack
                0x00000000        0x0 /alps/mprelease/MPload/ALPS.JB2.MP.V1.3_VANZO89_WET_JB2/source/alps/mediatek/preloader/out/sec_rom_info.o
 .text          0x00000000        0x0 /alps/mprelease/MPload/ALPS.JB2.MP.V1.3_VANZO89_WET_JB2/source/alps/mediatek/preloader/out/sec_secroimg.o
 .data          0x00000000        0x0 /alps/mprelease/MPload/ALPS.JB2.MP.V1.3_VANZO89_WET_JB2/source/alps/mediatek/preloader/out/sec_secroimg.o
 .bss           0x00000000        0x0 /alps/mprelease/MPload/ALPS.JB2.MP.V1.3_VANZO89_WET_JB2/source/alps/mediatek/preloader/out/sec_secroimg.o
 .note.GNU-stack
                0x00000000        0x0 /alps/mprelease/MPload/ALPS.JB2.MP.V1.3_VANZO89_WET_JB2/source/alps/mediatek/preloader/out/sec_secroimg.o
 .text          0x00000000        0x0 /alps/mprelease/MPload/ALPS.JB2.MP.V1.3_VANZO89_WET_JB2/source/alps/mediatek/preloader/out/sec_util.o
 .data          0x00000000        0x0 /alps/mprelease/MPload/ALPS.JB2.MP.V1.3_VANZO89_WET_JB2/source/alps/mediatek/preloader/out/sec_util.o
 .bss           0x00000000        0x0 /alps/mprelease/MPload/ALPS.JB2.MP.V1.3_VANZO89_WET_JB2/source/alps/mediatek/preloader/out/sec_util.o
 .text.sec_set_usb_handshake_status
                0x00000000       0x14 /alps/mprelease/MPload/ALPS.JB2.MP.V1.3_VANZO89_WET_JB2/source/alps/mediatek/preloader/out/sec_util.o
 .text.sec_util_force_entering_fastboot_mode
                0x00000000       0x48 /alps/mprelease/MPload/ALPS.JB2.MP.V1.3_VANZO89_WET_JB2/source/alps/mediatek/preloader/out/sec_util.o
 .bss.bUsbHandshakeSuccess
                0x00000000        0x1 /alps/mprelease/MPload/ALPS.JB2.MP.V1.3_VANZO89_WET_JB2/source/alps/mediatek/preloader/out/sec_util.o
 .note.GNU-stack
                0x00000000        0x0 /alps/mprelease/MPload/ALPS.JB2.MP.V1.3_VANZO89_WET_JB2/source/alps/mediatek/preloader/out/sec_util.o
 .text          0x00000000        0x0 /alps/mprelease/MPload/ALPS.JB2.MP.V1.3_VANZO89_WET_JB2/source/alps/mediatek/preloader/out/stdlib.o
 .data          0x00000000        0x0 /alps/mprelease/MPload/ALPS.JB2.MP.V1.3_VANZO89_WET_JB2/source/alps/mediatek/preloader/out/stdlib.o
 .bss           0x00000000        0x0 /alps/mprelease/MPload/ALPS.JB2.MP.V1.3_VANZO89_WET_JB2/source/alps/mediatek/preloader/out/stdlib.o
 .text.longjmperror
                0x00000000       0x20 /alps/mprelease/MPload/ALPS.JB2.MP.V1.3_VANZO89_WET_JB2/source/alps/mediatek/preloader/out/stdlib.o
 .rodata.str1.1
                0x00000000        0xb /alps/mprelease/MPload/ALPS.JB2.MP.V1.3_VANZO89_WET_JB2/source/alps/mediatek/preloader/out/stdlib.o
 .note.GNU-stack
                0x00000000        0x0 /alps/mprelease/MPload/ALPS.JB2.MP.V1.3_VANZO89_WET_JB2/source/alps/mediatek/preloader/out/stdlib.o
 .text          0x00000000        0x0 /alps/mprelease/MPload/ALPS.JB2.MP.V1.3_VANZO89_WET_JB2/source/alps/mediatek/preloader/out/string.o
 .data          0x00000000        0x0 /alps/mprelease/MPload/ALPS.JB2.MP.V1.3_VANZO89_WET_JB2/source/alps/mediatek/preloader/out/string.o
 .bss           0x00000000        0x0 /alps/mprelease/MPload/ALPS.JB2.MP.V1.3_VANZO89_WET_JB2/source/alps/mediatek/preloader/out/string.o
 .note.GNU-stack
                0x00000000        0x0 /alps/mprelease/MPload/ALPS.JB2.MP.V1.3_VANZO89_WET_JB2/source/alps/mediatek/preloader/out/string.o
 .text          0x00000000        0x0 /alps/mprelease/MPload/ALPS.JB2.MP.V1.3_VANZO89_WET_JB2/source/alps/mediatek/preloader/out/uart.o
 .data          0x00000000        0x0 /alps/mprelease/MPload/ALPS.JB2.MP.V1.3_VANZO89_WET_JB2/source/alps/mediatek/preloader/out/uart.o
 .bss           0x00000000        0x0 /alps/mprelease/MPload/ALPS.JB2.MP.V1.3_VANZO89_WET_JB2/source/alps/mediatek/preloader/out/uart.o
 .text.serial_nonblock_getc
                0x00000000       0x18 /alps/mprelease/MPload/ALPS.JB2.MP.V1.3_VANZO89_WET_JB2/source/alps/mediatek/preloader/out/uart.o
 .note.GNU-stack
                0x00000000        0x0 /alps/mprelease/MPload/ALPS.JB2.MP.V1.3_VANZO89_WET_JB2/source/alps/mediatek/preloader/out/uart.o
 .text          0x00000000        0x0 /alps/mprelease/MPload/ALPS.JB2.MP.V1.3_VANZO89_WET_JB2/source/alps/mediatek/platform/mt6589/preloader/src/SecLib.a(seclib.o)
 .data          0x00000000        0x0 /alps/mprelease/MPload/ALPS.JB2.MP.V1.3_VANZO89_WET_JB2/source/alps/mediatek/platform/mt6589/preloader/src/SecLib.a(seclib.o)
 .bss           0x00000000        0x0 /alps/mprelease/MPload/ALPS.JB2.MP.V1.3_VANZO89_WET_JB2/source/alps/mediatek/platform/mt6589/preloader/src/SecLib.a(seclib.o)
 .note.GNU-stack
                0x00000000        0x0 /alps/mprelease/MPload/ALPS.JB2.MP.V1.3_VANZO89_WET_JB2/source/alps/mediatek/platform/mt6589/preloader/src/SecLib.a(seclib.o)
 .text          0x00000000        0x0 /alps/mprelease/MPload/ALPS.JB2.MP.V1.3_VANZO89_WET_JB2/source/alps/mediatek/platform/mt6589/preloader/src/SecLib.a(seclib_boot.o)
 .data          0x00000000        0x0 /alps/mprelease/MPload/ALPS.JB2.MP.V1.3_VANZO89_WET_JB2/source/alps/mediatek/platform/mt6589/preloader/src/SecLib.a(seclib_boot.o)
 .bss           0x00000000        0x0 /alps/mprelease/MPload/ALPS.JB2.MP.V1.3_VANZO89_WET_JB2/source/alps/mediatek/platform/mt6589/preloader/src/SecLib.a(seclib_boot.o)
 .text.seclib_image_info_update
                0x00000000        0x8 /alps/mprelease/MPload/ALPS.JB2.MP.V1.3_VANZO89_WET_JB2/source/alps/mediatek/platform/mt6589/preloader/src/SecLib.a(seclib_boot.o)
 .text.seclib_image_info_add
                0x00000000        0x8 /alps/mprelease/MPload/ALPS.JB2.MP.V1.3_VANZO89_WET_JB2/source/alps/mediatek/platform/mt6589/preloader/src/SecLib.a(seclib_boot.o)
 .note.GNU-stack
                0x00000000        0x0 /alps/mprelease/MPload/ALPS.JB2.MP.V1.3_VANZO89_WET_JB2/source/alps/mediatek/platform/mt6589/preloader/src/SecLib.a(seclib_boot.o)
 .text          0x00000000        0x0 /alps/mprelease/MPload/ALPS.JB2.MP.V1.3_VANZO89_WET_JB2/source/alps/mediatek/platform/mt6589/preloader/src/SecLib.a(seclib_dl.o)
 .data          0x00000000        0x0 /alps/mprelease/MPload/ALPS.JB2.MP.V1.3_VANZO89_WET_JB2/source/alps/mediatek/platform/mt6589/preloader/src/SecLib.a(seclib_dl.o)
 .bss           0x00000000        0x0 /alps/mprelease/MPload/ALPS.JB2.MP.V1.3_VANZO89_WET_JB2/source/alps/mediatek/platform/mt6589/preloader/src/SecLib.a(seclib_dl.o)
 .note.GNU-stack
                0x00000000        0x0 /alps/mprelease/MPload/ALPS.JB2.MP.V1.3_VANZO89_WET_JB2/source/alps/mediatek/platform/mt6589/preloader/src/SecLib.a(seclib_dl.o)
 .text          0x00000000        0x0 /alps/mprelease/MPload/ALPS.JB2.MP.V1.3_VANZO89_WET_JB2/source/alps/mediatek/platform/mt6589/preloader/src/SecLib.a(seclib_img_hash.o)
 .data          0x00000000        0x0 /alps/mprelease/MPload/ALPS.JB2.MP.V1.3_VANZO89_WET_JB2/source/alps/mediatek/platform/mt6589/preloader/src/SecLib.a(seclib_img_hash.o)
 .bss           0x00000000        0x0 /alps/mprelease/MPload/ALPS.JB2.MP.V1.3_VANZO89_WET_JB2/source/alps/mediatek/platform/mt6589/preloader/src/SecLib.a(seclib_img_hash.o)
 .note.GNU-stack
                0x00000000        0x0 /alps/mprelease/MPload/ALPS.JB2.MP.V1.3_VANZO89_WET_JB2/source/alps/mediatek/platform/mt6589/preloader/src/SecLib.a(seclib_img_hash.o)
 .text          0x00000000        0x0 /alps/mprelease/MPload/ALPS.JB2.MP.V1.3_VANZO89_WET_JB2/source/alps/mediatek/platform/mt6589/preloader/src/SecLib.a(seclib_img_verify.o)
 .data          0x00000000        0x0 /alps/mprelease/MPload/ALPS.JB2.MP.V1.3_VANZO89_WET_JB2/source/alps/mediatek/platform/mt6589/preloader/src/SecLib.a(seclib_img_verify.o)
 .bss           0x00000000        0x0 /alps/mprelease/MPload/ALPS.JB2.MP.V1.3_VANZO89_WET_JB2/source/alps/mediatek/platform/mt6589/preloader/src/SecLib.a(seclib_img_verify.o)
 .note.GNU-stack
                0x00000000        0x0 /alps/mprelease/MPload/ALPS.JB2.MP.V1.3_VANZO89_WET_JB2/source/alps/mediatek/platform/mt6589/preloader/src/SecLib.a(seclib_img_verify.o)
 .text          0x00000000        0x0 /alps/mprelease/MPload/ALPS.JB2.MP.V1.3_VANZO89_WET_JB2/source/alps/mediatek/platform/mt6589/preloader/src/SecLib.a(seclib_key.o)
 .data          0x00000000        0x0 /alps/mprelease/MPload/ALPS.JB2.MP.V1.3_VANZO89_WET_JB2/source/alps/mediatek/platform/mt6589/preloader/src/SecLib.a(seclib_key.o)
 .bss           0x00000000        0x0 /alps/mprelease/MPload/ALPS.JB2.MP.V1.3_VANZO89_WET_JB2/source/alps/mediatek/platform/mt6589/preloader/src/SecLib.a(seclib_key.o)
 .note.GNU-stack
                0x00000000        0x0 /alps/mprelease/MPload/ALPS.JB2.MP.V1.3_VANZO89_WET_JB2/source/alps/mediatek/platform/mt6589/preloader/src/SecLib.a(seclib_key.o)
 .text          0x00000000        0x0 /alps/mprelease/MPload/ALPS.JB2.MP.V1.3_VANZO89_WET_JB2/source/alps/mediatek/platform/mt6589/preloader/src/SecLib.a(seclib_secroimg.o)
 .data          0x00000000        0x0 /alps/mprelease/MPload/ALPS.JB2.MP.V1.3_VANZO89_WET_JB2/source/alps/mediatek/platform/mt6589/preloader/src/SecLib.a(seclib_secroimg.o)
 .bss           0x00000000        0x0 /alps/mprelease/MPload/ALPS.JB2.MP.V1.3_VANZO89_WET_JB2/source/alps/mediatek/platform/mt6589/preloader/src/SecLib.a(seclib_secroimg.o)
 .note.GNU-stack
                0x00000000        0x0 /alps/mprelease/MPload/ALPS.JB2.MP.V1.3_VANZO89_WET_JB2/source/alps/mediatek/platform/mt6589/preloader/src/SecLib.a(seclib_secroimg.o)
 .text          0x00000000        0x0 /alps/mprelease/MPload/ALPS.JB2.MP.V1.3_VANZO89_WET_JB2/source/alps/mediatek/platform/mt6589/preloader/src/SecLib.a(seclib_sej_export.o)
 .data          0x00000000        0x0 /alps/mprelease/MPload/ALPS.JB2.MP.V1.3_VANZO89_WET_JB2/source/alps/mediatek/platform/mt6589/preloader/src/SecLib.a(seclib_sej_export.o)
 .bss           0x00000000        0x0 /alps/mprelease/MPload/ALPS.JB2.MP.V1.3_VANZO89_WET_JB2/source/alps/mediatek/platform/mt6589/preloader/src/SecLib.a(seclib_sej_export.o)
 .text.sp_sej_deinit
                0x00000000        0x4 /alps/mprelease/MPload/ALPS.JB2.MP.V1.3_VANZO89_WET_JB2/source/alps/mediatek/platform/mt6589/preloader/src/SecLib.a(seclib_sej_export.o)
 .note.GNU-stack
                0x00000000        0x0 /alps/mprelease/MPload/ALPS.JB2.MP.V1.3_VANZO89_WET_JB2/source/alps/mediatek/platform/mt6589/preloader/src/SecLib.a(seclib_sej_export.o)
 .text          0x00000000        0x0 /alps/mprelease/MPload/ALPS.JB2.MP.V1.3_VANZO89_WET_JB2/source/alps/mediatek/platform/mt6589/preloader/src/SecLib.a(seclib_util.o)
 .data          0x00000000        0x0 /alps/mprelease/MPload/ALPS.JB2.MP.V1.3_VANZO89_WET_JB2/source/alps/mediatek/platform/mt6589/preloader/src/SecLib.a(seclib_util.o)
 .bss           0x00000000        0x0 /alps/mprelease/MPload/ALPS.JB2.MP.V1.3_VANZO89_WET_JB2/source/alps/mediatek/platform/mt6589/preloader/src/SecLib.a(seclib_util.o)
 .note.GNU-stack
                0x00000000        0x0 /alps/mprelease/MPload/ALPS.JB2.MP.V1.3_VANZO89_WET_JB2/source/alps/mediatek/platform/mt6589/preloader/src/SecLib.a(seclib_util.o)
 .text          0x00000000        0x0 /alps/mprelease/MPload/ALPS.JB2.MP.V1.3_VANZO89_WET_JB2/source/alps/mediatek/platform/mt6589/preloader/src/SecLib.a(weak_auth.o)
 .data          0x00000000        0x0 /alps/mprelease/MPload/ALPS.JB2.MP.V1.3_VANZO89_WET_JB2/source/alps/mediatek/platform/mt6589/preloader/src/SecLib.a(weak_auth.o)
 .bss           0x00000000        0x0 /alps/mprelease/MPload/ALPS.JB2.MP.V1.3_VANZO89_WET_JB2/source/alps/mediatek/platform/mt6589/preloader/src/SecLib.a(weak_auth.o)
 .text.seclib_rsa_init
                0x00000000        0x8 /alps/mprelease/MPload/ALPS.JB2.MP.V1.3_VANZO89_WET_JB2/source/alps/mediatek/platform/mt6589/preloader/src/SecLib.a(weak_auth.o)
 .note.GNU-stack
                0x00000000        0x0 /alps/mprelease/MPload/ALPS.JB2.MP.V1.3_VANZO89_WET_JB2/source/alps/mediatek/platform/mt6589/preloader/src/SecLib.a(weak_auth.o)
 .text          0x00000000        0x0 /alps/mprelease/MPload/ALPS.JB2.MP.V1.3_VANZO89_WET_JB2/source/alps/mediatek/platform/mt6589/preloader/src/SecLib.a(seccfg_crypto.o)
 .data          0x00000000        0x0 /alps/mprelease/MPload/ALPS.JB2.MP.V1.3_VANZO89_WET_JB2/source/alps/mediatek/platform/mt6589/preloader/src/SecLib.a(seccfg_crypto.o)
 .bss           0x00000000        0x0 /alps/mprelease/MPload/ALPS.JB2.MP.V1.3_VANZO89_WET_JB2/source/alps/mediatek/platform/mt6589/preloader/src/SecLib.a(seccfg_crypto.o)
 .note.GNU-stack
                0x00000000        0x0 /alps/mprelease/MPload/ALPS.JB2.MP.V1.3_VANZO89_WET_JB2/source/alps/mediatek/platform/mt6589/preloader/src/SecLib.a(seccfg_crypto.o)
 .text          0x00000000        0x0 /alps/mprelease/MPload/ALPS.JB2.MP.V1.3_VANZO89_WET_JB2/source/alps/mediatek/platform/mt6589/preloader/src/security/auth/DaVerifyLib.a(auth.o)
 .data          0x00000000        0x0 /alps/mprelease/MPload/ALPS.JB2.MP.V1.3_VANZO89_WET_JB2/source/alps/mediatek/platform/mt6589/preloader/src/security/auth/DaVerifyLib.a(auth.o)
 .bss           0x00000000        0x0 /alps/mprelease/MPload/ALPS.JB2.MP.V1.3_VANZO89_WET_JB2/source/alps/mediatek/platform/mt6589/preloader/src/security/auth/DaVerifyLib.a(auth.o)
 .note.GNU-stack
                0x00000000        0x0 /alps/mprelease/MPload/ALPS.JB2.MP.V1.3_VANZO89_WET_JB2/source/alps/mediatek/platform/mt6589/preloader/src/security/auth/DaVerifyLib.a(auth.o)
 .text          0x00000000        0x0 /alps/mprelease/MPload/ALPS.JB2.MP.V1.3_VANZO89_WET_JB2/source/alps/mediatek/platform/mt6589/preloader/src/security/auth/DaVerifyLib.a(bgn_io.o)
 .data          0x00000000        0x0 /alps/mprelease/MPload/ALPS.JB2.MP.V1.3_VANZO89_WET_JB2/source/alps/mediatek/platform/mt6589/preloader/src/security/auth/DaVerifyLib.a(bgn_io.o)
 .bss           0x00000000        0x0 /alps/mprelease/MPload/ALPS.JB2.MP.V1.3_VANZO89_WET_JB2/source/alps/mediatek/platform/mt6589/preloader/src/security/auth/DaVerifyLib.a(bgn_io.o)
 .note.GNU-stack
                0x00000000        0x0 /alps/mprelease/MPload/ALPS.JB2.MP.V1.3_VANZO89_WET_JB2/source/alps/mediatek/platform/mt6589/preloader/src/security/auth/DaVerifyLib.a(bgn_io.o)
 .text          0x00000000        0x0 /alps/mprelease/MPload/ALPS.JB2.MP.V1.3_VANZO89_WET_JB2/source/alps/mediatek/platform/mt6589/preloader/src/security/auth/DaVerifyLib.a(bgn_util.o)
 .data          0x00000000        0x0 /alps/mprelease/MPload/ALPS.JB2.MP.V1.3_VANZO89_WET_JB2/source/alps/mediatek/platform/mt6589/preloader/src/security/auth/DaVerifyLib.a(bgn_util.o)
 .bss           0x00000000        0x0 /alps/mprelease/MPload/ALPS.JB2.MP.V1.3_VANZO89_WET_JB2/source/alps/mediatek/platform/mt6589/preloader/src/security/auth/DaVerifyLib.a(bgn_util.o)
 .text.bgn_swap
                0x00000000       0x48 /alps/mprelease/MPload/ALPS.JB2.MP.V1.3_VANZO89_WET_JB2/source/alps/mediatek/platform/mt6589/preloader/src/security/auth/DaVerifyLib.a(bgn_util.o)
 .text.bgn_lsb  0x00000000       0x54 /alps/mprelease/MPload/ALPS.JB2.MP.V1.3_VANZO89_WET_JB2/source/alps/mediatek/platform/mt6589/preloader/src/security/auth/DaVerifyLib.a(bgn_util.o)
 .text.bgn_div_int
                0x00000000       0x40 /alps/mprelease/MPload/ALPS.JB2.MP.V1.3_VANZO89_WET_JB2/source/alps/mediatek/platform/mt6589/preloader/src/security/auth/DaVerifyLib.a(bgn_util.o)
 .text.bgn_mod_int
                0x00000000       0xc8 /alps/mprelease/MPload/ALPS.JB2.MP.V1.3_VANZO89_WET_JB2/source/alps/mediatek/platform/mt6589/preloader/src/security/auth/DaVerifyLib.a(bgn_util.o)
 .note.GNU-stack
                0x00000000        0x0 /alps/mprelease/MPload/ALPS.JB2.MP.V1.3_VANZO89_WET_JB2/source/alps/mediatek/platform/mt6589/preloader/src/security/auth/DaVerifyLib.a(bgn_util.o)
 .text          0x00000000        0x0 /alps/mprelease/MPload/ALPS.JB2.MP.V1.3_VANZO89_WET_JB2/source/alps/mediatek/platform/mt6589/preloader/src/security/auth/DaVerifyLib.a(rsa.o)
 .data          0x00000000        0x0 /alps/mprelease/MPload/ALPS.JB2.MP.V1.3_VANZO89_WET_JB2/source/alps/mediatek/platform/mt6589/preloader/src/security/auth/DaVerifyLib.a(rsa.o)
 .bss           0x00000000        0x0 /alps/mprelease/MPload/ALPS.JB2.MP.V1.3_VANZO89_WET_JB2/source/alps/mediatek/platform/mt6589/preloader/src/security/auth/DaVerifyLib.a(rsa.o)
 .text.rsa_init
                0x00000000       0x38 /alps/mprelease/MPload/ALPS.JB2.MP.V1.3_VANZO89_WET_JB2/source/alps/mediatek/platform/mt6589/preloader/src/security/auth/DaVerifyLib.a(rsa.o)
 .text.rsa_free
                0x00000000       0x3c /alps/mprelease/MPload/ALPS.JB2.MP.V1.3_VANZO89_WET_JB2/source/alps/mediatek/platform/mt6589/preloader/src/security/auth/DaVerifyLib.a(rsa.o)
 .bss.rsa_ci    0x00000000       0x80 /alps/mprelease/MPload/ALPS.JB2.MP.V1.3_VANZO89_WET_JB2/source/alps/mediatek/platform/mt6589/preloader/src/security/auth/DaVerifyLib.a(rsa.o)
 .note.GNU-stack
                0x00000000        0x0 /alps/mprelease/MPload/ALPS.JB2.MP.V1.3_VANZO89_WET_JB2/source/alps/mediatek/platform/mt6589/preloader/src/security/auth/DaVerifyLib.a(rsa.o)
 .text          0x00000000        0x0 /alps/mprelease/MPload/ALPS.JB2.MP.V1.3_VANZO89_WET_JB2/source/alps/mediatek/platform/mt6589/preloader/src/security/auth/DaVerifyLib.a(sha1.o)
 .data          0x00000000        0x0 /alps/mprelease/MPload/ALPS.JB2.MP.V1.3_VANZO89_WET_JB2/source/alps/mediatek/platform/mt6589/preloader/src/security/auth/DaVerifyLib.a(sha1.o)
 .bss           0x00000000        0x0 /alps/mprelease/MPload/ALPS.JB2.MP.V1.3_VANZO89_WET_JB2/source/alps/mediatek/platform/mt6589/preloader/src/security/auth/DaVerifyLib.a(sha1.o)
 .text.cal_S    0x00000000        0xc /alps/mprelease/MPload/ALPS.JB2.MP.V1.3_VANZO89_WET_JB2/source/alps/mediatek/platform/mt6589/preloader/src/security/auth/DaVerifyLib.a(sha1.o)
 .text.cal_A2   0x00000000        0x8 /alps/mprelease/MPload/ALPS.JB2.MP.V1.3_VANZO89_WET_JB2/source/alps/mediatek/platform/mt6589/preloader/src/security/auth/DaVerifyLib.a(sha1.o)
 .note.GNU-stack
                0x00000000        0x0 /alps/mprelease/MPload/ALPS.JB2.MP.V1.3_VANZO89_WET_JB2/source/alps/mediatek/platform/mt6589/preloader/src/security/auth/DaVerifyLib.a(sha1.o)
 .text          0x00000000        0x0 /alps/mprelease/MPload/ALPS.JB2.MP.V1.3_VANZO89_WET_JB2/source/alps/mediatek/platform/mt6589/preloader/src/security/auth/DaVerifyLib.a(stdlib.o)
 .data          0x00000000        0x0 /alps/mprelease/MPload/ALPS.JB2.MP.V1.3_VANZO89_WET_JB2/source/alps/mediatek/platform/mt6589/preloader/src/security/auth/DaVerifyLib.a(stdlib.o)
 .bss           0x00000000        0x0 /alps/mprelease/MPload/ALPS.JB2.MP.V1.3_VANZO89_WET_JB2/source/alps/mediatek/platform/mt6589/preloader/src/security/auth/DaVerifyLib.a(stdlib.o)
 .data.heap_start_addr
                0x00000000        0x4 /alps/mprelease/MPload/ALPS.JB2.MP.V1.3_VANZO89_WET_JB2/source/alps/mediatek/platform/mt6589/preloader/src/security/auth/DaVerifyLib.a(stdlib.o)
 .note.GNU-stack
                0x00000000        0x0 /alps/mprelease/MPload/ALPS.JB2.MP.V1.3_VANZO89_WET_JB2/source/alps/mediatek/platform/mt6589/preloader/src/security/auth/DaVerifyLib.a(stdlib.o)
 .text          0x00000000        0x0 /alps/mprelease/MPload/ALPS.JB2.MP.V1.3_VANZO89_WET_JB2/source/alps/mediatek/platform/mt6589/preloader/src/security/auth/DaVerifyLib.a(bgn_core.o)
 .data          0x00000000        0x0 /alps/mprelease/MPload/ALPS.JB2.MP.V1.3_VANZO89_WET_JB2/source/alps/mediatek/platform/mt6589/preloader/src/security/auth/DaVerifyLib.a(bgn_core.o)
 .bss           0x00000000        0x0 /alps/mprelease/MPload/ALPS.JB2.MP.V1.3_VANZO89_WET_JB2/source/alps/mediatek/platform/mt6589/preloader/src/security/auth/DaVerifyLib.a(bgn_core.o)
 .note.GNU-stack
                0x00000000        0x0 /alps/mprelease/MPload/ALPS.JB2.MP.V1.3_VANZO89_WET_JB2/source/alps/mediatek/platform/mt6589/preloader/src/security/auth/DaVerifyLib.a(bgn_core.o)
 .text          0x00000000        0x0 /alps/mprelease/MPload/ALPS.JB2.MP.V1.3_VANZO89_WET_JB2/source/alps/mediatek/platform/mt6589/preloader/src/security/auth/DaVerifyLib.a(montg.o)
 .data          0x00000000        0x0 /alps/mprelease/MPload/ALPS.JB2.MP.V1.3_VANZO89_WET_JB2/source/alps/mediatek/platform/mt6589/preloader/src/security/auth/DaVerifyLib.a(montg.o)
 .bss           0x00000000        0x0 /alps/mprelease/MPload/ALPS.JB2.MP.V1.3_VANZO89_WET_JB2/source/alps/mediatek/platform/mt6589/preloader/src/security/auth/DaVerifyLib.a(montg.o)
 .note.GNU-stack
                0x00000000        0x0 /alps/mprelease/MPload/ALPS.JB2.MP.V1.3_VANZO89_WET_JB2/source/alps/mediatek/platform/mt6589/preloader/src/security/auth/DaVerifyLib.a(montg.o)
 .text          0x00000000        0x0 /alps/mprelease/MPload/ALPS.JB2.MP.V1.3_VANZO89_WET_JB2/source/alps/mediatek/platform/mt6589/preloader/src/SecPlat.a(efuse.o)
 .data          0x00000000        0x0 /alps/mprelease/MPload/ALPS.JB2.MP.V1.3_VANZO89_WET_JB2/source/alps/mediatek/platform/mt6589/preloader/src/SecPlat.a(efuse.o)
 .bss           0x00000000        0x0 /alps/mprelease/MPload/ALPS.JB2.MP.V1.3_VANZO89_WET_JB2/source/alps/mediatek/platform/mt6589/preloader/src/SecPlat.a(efuse.o)
 .text.seclib_get_devinfo_with_index
                0x00000000       0x54 /alps/mprelease/MPload/ALPS.JB2.MP.V1.3_VANZO89_WET_JB2/source/alps/mediatek/platform/mt6589/preloader/src/SecPlat.a(efuse.o)
 .data.g_devinfo_data_addr
                0x00000000       0x54 /alps/mprelease/MPload/ALPS.JB2.MP.V1.3_VANZO89_WET_JB2/source/alps/mediatek/platform/mt6589/preloader/src/SecPlat.a(efuse.o)
 .note.GNU-stack
                0x00000000        0x0 /alps/mprelease/MPload/ALPS.JB2.MP.V1.3_VANZO89_WET_JB2/source/alps/mediatek/platform/mt6589/preloader/src/SecPlat.a(efuse.o)
 .text          0x00000000        0x0 /alps/mprelease/MPload/ALPS.JB2.MP.V1.3_VANZO89_WET_JB2/source/alps/mediatek/platform/mt6589/preloader/src/SecPlat.a(meta.o)
 .data          0x00000000        0x0 /alps/mprelease/MPload/ALPS.JB2.MP.V1.3_VANZO89_WET_JB2/source/alps/mediatek/platform/mt6589/preloader/src/SecPlat.a(meta.o)
 .bss           0x00000000        0x0 /alps/mprelease/MPload/ALPS.JB2.MP.V1.3_VANZO89_WET_JB2/source/alps/mediatek/platform/mt6589/preloader/src/SecPlat.a(meta.o)
 .note.GNU-stack
                0x00000000        0x0 /alps/mprelease/MPload/ALPS.JB2.MP.V1.3_VANZO89_WET_JB2/source/alps/mediatek/platform/mt6589/preloader/src/SecPlat.a(meta.o)
 .text          0x00000000        0x0 /alps/mprelease/MPload/ALPS.JB2.MP.V1.3_VANZO89_WET_JB2/source/alps/mediatek/platform/mt6589/preloader/src/SecPlat.a(seclib_region.o)
 .data          0x00000000        0x0 /alps/mprelease/MPload/ALPS.JB2.MP.V1.3_VANZO89_WET_JB2/source/alps/mediatek/platform/mt6589/preloader/src/SecPlat.a(seclib_region.o)
 .bss           0x00000000        0x0 /alps/mprelease/MPload/ALPS.JB2.MP.V1.3_VANZO89_WET_JB2/source/alps/mediatek/platform/mt6589/preloader/src/SecPlat.a(seclib_region.o)
 .note.GNU-stack
                0x00000000        0x0 /alps/mprelease/MPload/ALPS.JB2.MP.V1.3_VANZO89_WET_JB2/source/alps/mediatek/platform/mt6589/preloader/src/SecPlat.a(seclib_region.o)
 .text          0x00000000        0x0 /alps/mprelease/MPload/ALPS.JB2.MP.V1.3_VANZO89_WET_JB2/source/alps/mediatek/platform/mt6589/preloader/src/SecPlat.a(sej_hk.o)
 .data          0x00000000        0x0 /alps/mprelease/MPload/ALPS.JB2.MP.V1.3_VANZO89_WET_JB2/source/alps/mediatek/platform/mt6589/preloader/src/SecPlat.a(sej_hk.o)
 .bss           0x00000000        0x0 /alps/mprelease/MPload/ALPS.JB2.MP.V1.3_VANZO89_WET_JB2/source/alps/mediatek/platform/mt6589/preloader/src/SecPlat.a(sej_hk.o)
 .rodata.g_AC_BOOTROM_SWOTP
                0x00000000       0x20 /alps/mprelease/MPload/ALPS.JB2.MP.V1.3_VANZO89_WET_JB2/source/alps/mediatek/platform/mt6589/preloader/src/SecPlat.a(sej_hk.o)
 .note.GNU-stack
                0x00000000        0x0 /alps/mprelease/MPload/ALPS.JB2.MP.V1.3_VANZO89_WET_JB2/source/alps/mediatek/platform/mt6589/preloader/src/SecPlat.a(sej_hk.o)
 .text          0x00000000        0x0 /alps/mprelease/MPload/ALPS.JB2.MP.V1.3_VANZO89_WET_JB2/source/alps/mediatek/platform/mt6589/preloader/src/SecPlat.a(sej_sk.o)
 .data          0x00000000        0x0 /alps/mprelease/MPload/ALPS.JB2.MP.V1.3_VANZO89_WET_JB2/source/alps/mediatek/platform/mt6589/preloader/src/SecPlat.a(sej_sk.o)
 .bss           0x00000000        0x0 /alps/mprelease/MPload/ALPS.JB2.MP.V1.3_VANZO89_WET_JB2/source/alps/mediatek/platform/mt6589/preloader/src/SecPlat.a(sej_sk.o)
 .note.GNU-stack
                0x00000000        0x0 /alps/mprelease/MPload/ALPS.JB2.MP.V1.3_VANZO89_WET_JB2/source/alps/mediatek/platform/mt6589/preloader/src/SecPlat.a(sej_sk.o)

Memory map

 ** file header
                0x00102000       0x34
 ** segment headers
                0x00102034       0x80

.bss            0x00102180     0x6704
 .bss.blkdev_list
                0x00102180        0x4 /alps/mprelease/MPload/ALPS.JB2.MP.V1.3_VANZO89_WET_JB2/source/alps/mediatek/preloader/out/blkdev.o
 .bss.g_usb_input_buf
                0x00102184      0x400 /alps/mprelease/MPload/ALPS.JB2.MP.V1.3_VANZO89_WET_JB2/source/alps/mediatek/preloader/out/circbuf.o
 .bss.g_usb_output_buf
                0x00102584      0x400 /alps/mprelease/MPload/ALPS.JB2.MP.V1.3_VANZO89_WET_JB2/source/alps/mediatek/preloader/out/circbuf.o
 .bss.g_da_verified
                0x00102984        0x1 /alps/mprelease/MPload/ALPS.JB2.MP.V1.3_VANZO89_WET_JB2/source/alps/mediatek/preloader/out/download.o
                0x00102984                g_da_verified
 .bss.g_I2C_CmdBuf
                0x00102985       0x20 /alps/mprelease/MPload/ALPS.JB2.MP.V1.3_VANZO89_WET_JB2/source/alps/mediatek/preloader/out/download.o
 .bss.dlcomport
                0x001029a8        0x4 /alps/mprelease/MPload/ALPS.JB2.MP.V1.3_VANZO89_WET_JB2/source/alps/mediatek/preloader/out/download.o
 .bss.g_I2C_DataBuf
                0x001029ac       0x20 /alps/mprelease/MPload/ALPS.JB2.MP.V1.3_VANZO89_WET_JB2/source/alps/mediatek/preloader/out/download.o
 .bss.opt_tx_dqs
                0x001029cc        0x4 /alps/mprelease/MPload/ALPS.JB2.MP.V1.3_VANZO89_WET_JB2/source/alps/mediatek/preloader/out/dramc_calib.o
                0x001029cc                opt_tx_dqs
 .bss.opt_tx_dq
                0x001029d0       0x10 /alps/mprelease/MPload/ALPS.JB2.MP.V1.3_VANZO89_WET_JB2/source/alps/mediatek/preloader/out/dramc_calib.o
                0x001029d0                opt_tx_dq
 .bss.opt_tx_dqm
                0x001029e0        0x4 /alps/mprelease/MPload/ALPS.JB2.MP.V1.3_VANZO89_WET_JB2/source/alps/mediatek/preloader/out/dramc_calib.o
                0x001029e0                opt_tx_dqm
 .bss.opt_rx_dqs0
                0x001029e4        0x4 /alps/mprelease/MPload/ALPS.JB2.MP.V1.3_VANZO89_WET_JB2/source/alps/mediatek/preloader/out/dramc_calib.o
                0x001029e4                opt_rx_dqs0
 .bss.RANK_CURR
                0x001029e8        0x4 /alps/mprelease/MPload/ALPS.JB2.MP.V1.3_VANZO89_WET_JB2/source/alps/mediatek/preloader/out/dramc_calib.o
                0x001029e8                RANK_CURR
 .bss.opt_rx_dqs1
                0x001029ec        0x4 /alps/mprelease/MPload/ALPS.JB2.MP.V1.3_VANZO89_WET_JB2/source/alps/mediatek/preloader/out/dramc_calib.o
                0x001029ec                opt_rx_dqs1
 .bss.dle_result
                0x001029f0       0x40 /alps/mprelease/MPload/ALPS.JB2.MP.V1.3_VANZO89_WET_JB2/source/alps/mediatek/preloader/out/dramc_dle_cal.o
                0x001029f0                dle_result
 .bss.global_dle_value
                0x00102a30        0x4 /alps/mprelease/MPload/ALPS.JB2.MP.V1.3_VANZO89_WET_JB2/source/alps/mediatek/preloader/out/dramc_dle_cal.o
 .bss.opt_gw_fine_value1
                0x00102a34        0x4 /alps/mprelease/MPload/ALPS.JB2.MP.V1.3_VANZO89_WET_JB2/source/alps/mediatek/preloader/out/dramc_dqs_gw.o
                0x00102a34                opt_gw_fine_value1
 .bss.max_pwin  0x00102a38        0xc /alps/mprelease/MPload/ALPS.JB2.MP.V1.3_VANZO89_WET_JB2/source/alps/mediatek/preloader/out/dramc_dqs_gw.o
 .bss.dqs_gw_fine
                0x00102a44        0x4 /alps/mprelease/MPload/ALPS.JB2.MP.V1.3_VANZO89_WET_JB2/source/alps/mediatek/preloader/out/dramc_dqs_gw.o
 .bss.opt_gw_coarse_value
                0x00102a48        0x4 /alps/mprelease/MPload/ALPS.JB2.MP.V1.3_VANZO89_WET_JB2/source/alps/mediatek/preloader/out/dramc_dqs_gw.o
                0x00102a48                opt_gw_coarse_value
 .bss.opt_gw_fine_value
                0x00102a4c        0x4 /alps/mprelease/MPload/ALPS.JB2.MP.V1.3_VANZO89_WET_JB2/source/alps/mediatek/preloader/out/dramc_dqs_gw.o
                0x00102a4c                opt_gw_fine_value
 .bss.high_score
                0x00102a50        0x4 /alps/mprelease/MPload/ALPS.JB2.MP.V1.3_VANZO89_WET_JB2/source/alps/mediatek/preloader/out/dramc_dqs_gw.o
                0x00102a50                high_score
 .bss.opt_gw_coarse_value0
                0x00102a54        0x4 /alps/mprelease/MPload/ALPS.JB2.MP.V1.3_VANZO89_WET_JB2/source/alps/mediatek/preloader/out/dramc_dqs_gw.o
                0x00102a54                opt_gw_coarse_value0
 .bss.score     0x00102a58        0x4 /alps/mprelease/MPload/ALPS.JB2.MP.V1.3_VANZO89_WET_JB2/source/alps/mediatek/preloader/out/dramc_dqs_gw.o
                0x00102a58                score
 .bss.opt_gw_coarse_value1
                0x00102a5c        0x4 /alps/mprelease/MPload/ALPS.JB2.MP.V1.3_VANZO89_WET_JB2/source/alps/mediatek/preloader/out/dramc_dqs_gw.o
                0x00102a5c                opt_gw_coarse_value1
 .bss.dqs_gw    0x00102a60       0x80 /alps/mprelease/MPload/ALPS.JB2.MP.V1.3_VANZO89_WET_JB2/source/alps/mediatek/preloader/out/dramc_dqs_gw.o
 .bss.dqs_gw_coarse
                0x00102ae0        0x4 /alps/mprelease/MPload/ALPS.JB2.MP.V1.3_VANZO89_WET_JB2/source/alps/mediatek/preloader/out/dramc_dqs_gw.o
 .bss.cur_pwin  0x00102ae4        0xc /alps/mprelease/MPload/ALPS.JB2.MP.V1.3_VANZO89_WET_JB2/source/alps/mediatek/preloader/out/dramc_dqs_gw.o
 .bss.opt_gw_fine_value0
                0x00102af0        0x4 /alps/mprelease/MPload/ALPS.JB2.MP.V1.3_VANZO89_WET_JB2/source/alps/mediatek/preloader/out/dramc_dqs_gw.o
                0x00102af0                opt_gw_fine_value0
 .bss.g_meta_ready_start_time
                0x00102af4        0x4 /alps/mprelease/MPload/ALPS.JB2.MP.V1.3_VANZO89_WET_JB2/source/alps/mediatek/preloader/out/handshake_uart.o
 .bss.g_addr_trans_tbl
                0x00102af8        0x8 /alps/mprelease/MPload/ALPS.JB2.MP.V1.3_VANZO89_WET_JB2/source/alps/mediatek/preloader/out/mmc_common_inter.o
 .bss.g_mmc_bdev
                0x00102b00       0x28 /alps/mprelease/MPload/ALPS.JB2.MP.V1.3_VANZO89_WET_JB2/source/alps/mediatek/preloader/out/mmc_common_inter.o
 .bss.g_emmc_size
                0x00102b28        0x8 /alps/mprelease/MPload/ALPS.JB2.MP.V1.3_VANZO89_WET_JB2/source/alps/mediatek/preloader/out/mmc_common_inter.o
                0x00102b28                g_emmc_size
 .bss.g_emmc_addr_trans
                0x00102b30       0x90 /alps/mprelease/MPload/ALPS.JB2.MP.V1.3_VANZO89_WET_JB2/source/alps/mediatek/preloader/out/mmc_common_inter.o
 .bss.sd_card   0x00102bc0      0x5b0 /alps/mprelease/MPload/ALPS.JB2.MP.V1.3_VANZO89_WET_JB2/source/alps/mediatek/preloader/out/mmc_core.o
 .bss.sd_host   0x00103170       0xc0 /alps/mprelease/MPload/ALPS.JB2.MP.V1.3_VANZO89_WET_JB2/source/alps/mediatek/preloader/out/mmc_core.o
 .bss.msdc_priv
                0x00103230       0xe0 /alps/mprelease/MPload/ALPS.JB2.MP.V1.3_VANZO89_WET_JB2/source/alps/mediatek/preloader/out/msdc.o
 .bss.found.1342
                0x00103310        0x4 /alps/mprelease/MPload/ALPS.JB2.MP.V1.3_VANZO89_WET_JB2/source/alps/mediatek/preloader/out/mt_emi.o
 .bss.id        0x00103314       0x16 /alps/mprelease/MPload/ALPS.JB2.MP.V1.3_VANZO89_WET_JB2/source/alps/mediatek/preloader/out/mt_emi.o
 .bss.fw_id_len
                0x0010332c        0x4 /alps/mprelease/MPload/ALPS.JB2.MP.V1.3_VANZO89_WET_JB2/source/alps/mediatek/preloader/out/mt_emi.o
 .bss.pllc1_prediv_1_0_n1
                0x00103330        0x4 /alps/mprelease/MPload/ALPS.JB2.MP.V1.3_VANZO89_WET_JB2/source/alps/mediatek/preloader/out/mtk_pll.o
                0x00103330                pllc1_prediv_1_0_n1
 .bss.pllc1_fbksel_1_0_n3
                0x00103334        0x4 /alps/mprelease/MPload/ALPS.JB2.MP.V1.3_VANZO89_WET_JB2/source/alps/mediatek/preloader/out/mtk_pll.o
                0x00103334                pllc1_fbksel_1_0_n3
 .bss.pllc1_postdiv_1_0_n5
                0x00103338        0x4 /alps/mprelease/MPload/ALPS.JB2.MP.V1.3_VANZO89_WET_JB2/source/alps/mediatek/preloader/out/mtk_pll.o
                0x00103338                pllc1_postdiv_1_0_n5
 .bss.g_charger_in_flag
                0x0010333c        0x4 /alps/mprelease/MPload/ALPS.JB2.MP.V1.3_VANZO89_WET_JB2/source/alps/mediatek/preloader/out/mtk_pmic_6320.o
                0x0010333c                g_charger_in_flag
 .bss.g_ret     0x00103340        0x4 /alps/mprelease/MPload/ALPS.JB2.MP.V1.3_VANZO89_WET_JB2/source/alps/mediatek/preloader/out/mtk_pmic_6320.o
                0x00103340                g_ret
 .bss.g_first_check
                0x00103344        0x4 /alps/mprelease/MPload/ALPS.JB2.MP.V1.3_VANZO89_WET_JB2/source/alps/mediatek/preloader/out/mtk_pmic_6320.o
                0x00103344                g_first_check
 .bss.timestamp
                0x00103348        0x4 /alps/mprelease/MPload/ALPS.JB2.MP.V1.3_VANZO89_WET_JB2/source/alps/mediatek/preloader/out/mtk_timer.o
 .bss.lastinc   0x0010334c        0x4 /alps/mprelease/MPload/ALPS.JB2.MP.V1.3_VANZO89_WET_JB2/source/alps/mediatek/preloader/out/mtk_timer.o
 .bss.g_rgu_status
                0x00103350        0x4 /alps/mprelease/MPload/ALPS.JB2.MP.V1.3_VANZO89_WET_JB2/source/alps/mediatek/preloader/out/mtk_wdt.o
                0x00103350                g_rgu_status
 .bss.reboot_from
                0x00103354        0x4 /alps/mprelease/MPload/ALPS.JB2.MP.V1.3_VANZO89_WET_JB2/source/alps/mediatek/preloader/out/mtk_wdt.o
 .bss.rgu_mode  0x00103358        0x4 /alps/mprelease/MPload/ALPS.JB2.MP.V1.3_VANZO89_WET_JB2/source/alps/mediatek/preloader/out/mtk_wdt.o
 .bss.timeout   0x0010335c        0x4 /alps/mprelease/MPload/ALPS.JB2.MP.V1.3_VANZO89_WET_JB2/source/alps/mediatek/preloader/out/mtk_wdt.o
 .bss.status.1238
                0x00103360        0x4 /alps/mprelease/MPload/ALPS.JB2.MP.V1.3_VANZO89_WET_JB2/source/alps/mediatek/preloader/out/mtk_wdt.o
 .bss.XOSC      0x00103364        0x4 /alps/mprelease/MPload/ALPS.JB2.MP.V1.3_VANZO89_WET_JB2/source/alps/mediatek/preloader/out/mt_rtc.o
 .bss.set_address
                0x00103368        0x4 /alps/mprelease/MPload/ALPS.JB2.MP.V1.3_VANZO89_WET_JB2/source/alps/mediatek/preloader/out/mt_usbd.o
                0x00103368                set_address
 .bss.ep0_urb   0x0010336c        0x4 /alps/mprelease/MPload/ALPS.JB2.MP.V1.3_VANZO89_WET_JB2/source/alps/mediatek/preloader/out/mt_usbd.o
 .bss.g_usb_port_state
                0x00103370        0x4 /alps/mprelease/MPload/ALPS.JB2.MP.V1.3_VANZO89_WET_JB2/source/alps/mediatek/preloader/out/mt_usbd.o
                0x00103370                g_usb_port_state
 .bss.udc_device
                0x00103374        0x4 /alps/mprelease/MPload/ALPS.JB2.MP.V1.3_VANZO89_WET_JB2/source/alps/mediatek/preloader/out/mt_usbd.o
 .bss.ep0_state
                0x00103378        0x4 /alps/mprelease/MPload/ALPS.JB2.MP.V1.3_VANZO89_WET_JB2/source/alps/mediatek/preloader/out/mt_usbd.o
                0x00103378                ep0_state
 .bss.g_usbphy_ok
                0x0010337c        0x4 /alps/mprelease/MPload/ALPS.JB2.MP.V1.3_VANZO89_WET_JB2/source/alps/mediatek/preloader/out/mt_usbd.o
                0x0010337c                g_usbphy_ok
 .bss.mt6573_rx_urb
                0x00103380      0x41c /alps/mprelease/MPload/ALPS.JB2.MP.V1.3_VANZO89_WET_JB2/source/alps/mediatek/preloader/out/mt_usbtty.o
                0x00103380                mt6573_rx_urb
 .bss.mt_usb_config
                0x0010379c        0xc /alps/mprelease/MPload/ALPS.JB2.MP.V1.3_VANZO89_WET_JB2/source/alps/mediatek/preloader/out/mt_usbtty.o
 .bss.mt6573_ep0_urb
                0x001037a8      0x41c /alps/mprelease/MPload/ALPS.JB2.MP.V1.3_VANZO89_WET_JB2/source/alps/mediatek/preloader/out/mt_usbtty.o
                0x001037a8                mt6573_ep0_urb
 .bss.mt_usb_comm_alternate_interface
                0x00103bc4       0x1c /alps/mprelease/MPload/ALPS.JB2.MP.V1.3_VANZO89_WET_JB2/source/alps/mediatek/preloader/out/mt_usbtty.o
 .bss.mt_usb_ep
                0x00103be0       0x70 /alps/mprelease/MPload/ALPS.JB2.MP.V1.3_VANZO89_WET_JB2/source/alps/mediatek/preloader/out/mt_usbtty.o
 .bss.usb_configured
                0x00103c50        0x4 /alps/mprelease/MPload/ALPS.JB2.MP.V1.3_VANZO89_WET_JB2/source/alps/mediatek/preloader/out/mt_usbtty.o
                0x00103c50                usb_configured
 .bss.usb_string_table
                0x00103c54        0x4 /alps/mprelease/MPload/ALPS.JB2.MP.V1.3_VANZO89_WET_JB2/source/alps/mediatek/preloader/out/mt_usbtty.o
                0x00103c54                usb_string_table
 .bss.usb_output_buffer
                0x00103c58       0x18 /alps/mprelease/MPload/ALPS.JB2.MP.V1.3_VANZO89_WET_JB2/source/alps/mediatek/preloader/out/mt_usbtty.o
 .bss.commInterface
                0x00103c70       0x40 /alps/mprelease/MPload/ALPS.JB2.MP.V1.3_VANZO89_WET_JB2/source/alps/mediatek/preloader/out/mt_usbtty.o
 .bss.dataInterface
                0x00103cb0       0x2e /alps/mprelease/MPload/ALPS.JB2.MP.V1.3_VANZO89_WET_JB2/source/alps/mediatek/preloader/out/mt_usbtty.o
 .bss.mt_usb_comm_interface
                0x00103ce0        0x8 /alps/mprelease/MPload/ALPS.JB2.MP.V1.3_VANZO89_WET_JB2/source/alps/mediatek/preloader/out/mt_usbtty.o
 .bss.mt6573_tx_urb
                0x00103ce8      0x41c /alps/mprelease/MPload/ALPS.JB2.MP.V1.3_VANZO89_WET_JB2/source/alps/mediatek/preloader/out/mt_usbtty.o
                0x00103ce8                mt6573_tx_urb
 .bss.usb_input_buffer
                0x00104104       0x18 /alps/mprelease/MPload/ALPS.JB2.MP.V1.3_VANZO89_WET_JB2/source/alps/mediatek/preloader/out/mt_usbtty.o
 .bss.mt_usb_device
                0x0010411c       0x28 /alps/mprelease/MPload/ALPS.JB2.MP.V1.3_VANZO89_WET_JB2/source/alps/mediatek/preloader/out/mt_usbtty.o
 .bss.mt_usb_data_alternate_interface
                0x00104144       0x1c /alps/mprelease/MPload/ALPS.JB2.MP.V1.3_VANZO89_WET_JB2/source/alps/mediatek/preloader/out/mt_usbtty.o
 .bss.configuration
                0x00104160       0x34 /alps/mprelease/MPload/ALPS.JB2.MP.V1.3_VANZO89_WET_JB2/source/alps/mediatek/preloader/out/mt_usbtty.o
 .bss.product   0x00104194       0x22 /alps/mprelease/MPload/ALPS.JB2.MP.V1.3_VANZO89_WET_JB2/source/alps/mediatek/preloader/out/mt_usbtty.o
 .bss.manufacturer
                0x001041b6       0x12 /alps/mprelease/MPload/ALPS.JB2.MP.V1.3_VANZO89_WET_JB2/source/alps/mediatek/preloader/out/mt_usbtty.o
 .bss.tool_exists
                0x001041c8        0x4 /alps/mprelease/MPload/ALPS.JB2.MP.V1.3_VANZO89_WET_JB2/source/alps/mediatek/preloader/out/mt_usbtty.o
                0x001041c8                tool_exists
 .bss.mt_usb_interface
                0x001041cc        0x8 /alps/mprelease/MPload/ALPS.JB2.MP.V1.3_VANZO89_WET_JB2/source/alps/mediatek/preloader/out/mt_usbtty.o
 .bss.mt_usb_data_interface
                0x001041d4        0x8 /alps/mprelease/MPload/ALPS.JB2.MP.V1.3_VANZO89_WET_JB2/source/alps/mediatek/preloader/out/mt_usbtty.o
 .bss.tempart   0x001041e0       0x18 /alps/mprelease/MPload/ALPS.JB2.MP.V1.3_VANZO89_WET_JB2/source/alps/mediatek/preloader/out/partition_mt.o
 .bss.lastest_part
                0x001041f8      0xdc0 /alps/mprelease/MPload/ALPS.JB2.MP.V1.3_VANZO89_WET_JB2/source/alps/mediatek/preloader/out/partition_mt.o
 .bss.new_part  0x00104fb8      0xdc0 /alps/mprelease/MPload/ALPS.JB2.MP.V1.3_VANZO89_WET_JB2/source/alps/mediatek/preloader/out/partition_mt.o
 .bss.page_readbuf
                0x00105d78     0x1000 /alps/mprelease/MPload/ALPS.JB2.MP.V1.3_VANZO89_WET_JB2/source/alps/mediatek/preloader/out/partition_mt.o
                0x00105d78                page_readbuf
 .bss.lastest_part32
                0x00106d78      0xbe0 /alps/mprelease/MPload/ALPS.JB2.MP.V1.3_VANZO89_WET_JB2/source/alps/mediatek/preloader/out/partition_mt.o
                0x00106d78                lastest_part32
 .bss.g_boot_time
                0x00107958        0x4 /alps/mprelease/MPload/ALPS.JB2.MP.V1.3_VANZO89_WET_JB2/source/alps/mediatek/preloader/out/platform.o
                0x00107958                g_boot_time
 .bss.g_boot_mode
                0x0010795c        0x4 /alps/mprelease/MPload/ALPS.JB2.MP.V1.3_VANZO89_WET_JB2/source/alps/mediatek/preloader/out/platform.o
                0x0010795c                g_boot_mode
 .bss.sys_stack
                0x00107960      0xc00 /alps/mprelease/MPload/ALPS.JB2.MP.V1.3_VANZO89_WET_JB2/source/alps/mediatek/preloader/out/platform.o
                0x00107960                sys_stack
 .bss.g_boot_reason
                0x00108560        0x4 /alps/mprelease/MPload/ALPS.JB2.MP.V1.3_VANZO89_WET_JB2/source/alps/mediatek/preloader/out/platform.o
                0x00108560                g_boot_reason
 .bss.kpoc_flag
                0x00108564        0x4 /alps/mprelease/MPload/ALPS.JB2.MP.V1.3_VANZO89_WET_JB2/source/alps/mediatek/preloader/out/platform.o
                0x00108564                kpoc_flag
 .bss.g_meta_com_type
                0x00108568        0x4 /alps/mprelease/MPload/ALPS.JB2.MP.V1.3_VANZO89_WET_JB2/source/alps/mediatek/preloader/out/platform.o
                0x00108568                g_meta_com_type
 .bss.g_meta_com_id
                0x0010856c        0x4 /alps/mprelease/MPload/ALPS.JB2.MP.V1.3_VANZO89_WET_JB2/source/alps/mediatek/preloader/out/platform.o
                0x0010856c                g_meta_com_id
 .bss.g_log_disable
                0x00108570        0x4 /alps/mprelease/MPload/ALPS.JB2.MP.V1.3_VANZO89_WET_JB2/source/alps/mediatek/preloader/out/print.o
 .bss.g_SBC_PUBK
                0x00108574      0x200 /alps/mprelease/MPload/ALPS.JB2.MP.V1.3_VANZO89_WET_JB2/source/alps/mediatek/preloader/out/sec_key.o
                0x00108574                g_SBC_PUBK
 .bss.sec_cfg_info
                0x00108774        0x8 /alps/mprelease/MPload/ALPS.JB2.MP.V1.3_VANZO89_WET_JB2/source/alps/mediatek/preloader/out/sec.o
                0x00108774                sec_cfg_info
 .bss.secroimg  0x0010877c        0x4 /alps/mprelease/MPload/ALPS.JB2.MP.V1.3_VANZO89_WET_JB2/source/alps/mediatek/preloader/out/sec_secroimg.o
                0x0010877c                secroimg
 .bss.bDumpPartInfo
                0x00108780        0x1 /alps/mprelease/MPload/ALPS.JB2.MP.V1.3_VANZO89_WET_JB2/source/alps/mediatek/preloader/out/sec_util.o
                0x00108780                bDumpPartInfo
 .bss.g_cust    0x00108784        0x4 /alps/mprelease/MPload/ALPS.JB2.MP.V1.3_VANZO89_WET_JB2/source/alps/mediatek/platform/mt6589/preloader/src/SecLib.a(seclib.o)
                0x00108784                g_cust
 .bss.g_sec_cfg
                0x00108788        0x4 /alps/mprelease/MPload/ALPS.JB2.MP.V1.3_VANZO89_WET_JB2/source/alps/mediatek/platform/mt6589/preloader/src/SecLib.a(seclib.o)
                0x00108788                g_sec_cfg
 .bss.g_cust_name
                0x0010878c       0x20 /alps/mprelease/MPload/ALPS.JB2.MP.V1.3_VANZO89_WET_JB2/source/alps/mediatek/platform/mt6589/preloader/src/SecLib.a(seclib.o)
                0x0010878c                g_cust_name
 .bss.g_sha1_time
                0x001087ac        0x4 /alps/mprelease/MPload/ALPS.JB2.MP.V1.3_VANZO89_WET_JB2/source/alps/mediatek/platform/mt6589/preloader/src/SecLib.a(seclib_img_hash.o)
                0x001087ac                g_sha1_time
 .bss.img_buf   0x001087b0        0x4 /alps/mprelease/MPload/ALPS.JB2.MP.V1.3_VANZO89_WET_JB2/source/alps/mediatek/platform/mt6589/preloader/src/SecLib.a(seclib_img_verify.o)
 .bss.chunk_buf
                0x001087b4        0x4 /alps/mprelease/MPload/ALPS.JB2.MP.V1.3_VANZO89_WET_JB2/source/alps/mediatek/platform/mt6589/preloader/src/SecLib.a(seclib_img_verify.o)
 .bss.img_buf_current_allocated
                0x001087b8        0x4 /alps/mprelease/MPload/ALPS.JB2.MP.V1.3_VANZO89_WET_JB2/source/alps/mediatek/platform/mt6589/preloader/src/SecLib.a(seclib_img_verify.o)
 .bss.rsa       0x001087bc       0x5c /alps/mprelease/MPload/ALPS.JB2.MP.V1.3_VANZO89_WET_JB2/source/alps/mediatek/platform/mt6589/preloader/src/security/auth/DaVerifyLib.a(rsa.o)
                0x001087bc                rsa
 .bss.sha1sum   0x00108818       0x14 /alps/mprelease/MPload/ALPS.JB2.MP.V1.3_VANZO89_WET_JB2/source/alps/mediatek/platform/mt6589/preloader/src/security/auth/DaVerifyLib.a(sha1.o)
                0x00108818                sha1sum
 .bss.heap_current_alloc
                0x0010882c        0x4 /alps/mprelease/MPload/ALPS.JB2.MP.V1.3_VANZO89_WET_JB2/source/alps/mediatek/platform/mt6589/preloader/src/security/auth/DaVerifyLib.a(stdlib.o)
                0x0010882c                heap_current_alloc
 .bss.sej_ctx   0x00108830       0x54 /alps/mprelease/MPload/ALPS.JB2.MP.V1.3_VANZO89_WET_JB2/source/alps/mediatek/platform/mt6589/preloader/src/SecPlat.a(sej_sk.o)

.start          0x12001000      0x1d0
 .text.start    0xffffffffffffffff      0x1d0 /alps/mprelease/MPload/ALPS.JB2.MP.V1.3_VANZO89_WET_JB2/source/alps/mediatek/preloader/out/init.o
                0x12001000                _start
                0x120010c8                jump
                0x120010d4                apmcu_icache_invalidate
                0x120010e0                apmcu_dcache_clean_invalidate
                0x1200117c                apmcu_dsb
                0x12001184                apmcu_isb
                0x1200118c                apmcu_disable_dcache
                0x1200119c                apmcu_disable_icache
                0x120011b4                apmcu_disable_smp

.rom_info       0x120011fc      0x3c0
 .data.rom_info
                0x120011fc      0x3c0 /alps/mprelease/MPload/ALPS.JB2.MP.V1.3_VANZO89_WET_JB2/source/alps/mediatek/preloader/out/sec_rom_info.o
                0x120011fc                g_ROM_INFO

.text           0x120015c0      0x354
 .text          0x120015c0      0x140 /alps/mprelease/MPload/ALPS.JB2.MP.V1.3_VANZO89_WET_JB2/source/alps/mediatek/preloader/out/eabi_idiv.o
                0x120015c0                __divsi3
                0x120015c0                __aeabi_idiv
 .text          0x12001700       0xc8 /alps/mprelease/MPload/ALPS.JB2.MP.V1.3_VANZO89_WET_JB2/source/alps/mediatek/preloader/out/eabi.o
                0x12001700                __udivsi3
                0x12001700                __aeabi_uidiv
                0x12001798                __aeabi_uidivmod
                0x120017b0                __aeabi_idivmod
 .text          0xffffffffffffffff      0x14c /alps/mprelease/MPload/ALPS.JB2.MP.V1.3_VANZO89_WET_JB2/source/alps/mediatek/preloader/out/eabi_uldivmod.o
                0x120017c8                __aeabi_uldivmod

.text.virt_to_phys_addr
                0x12001914       0xe8
 .text.virt_to_phys_addr
                0xffffffffffffffff       0xe8 /alps/mprelease/MPload/ALPS.JB2.MP.V1.3_VANZO89_WET_JB2/source/alps/mediatek/preloader/out/addr_trans.o
                0x12001914                virt_to_phys_addr

.text.blkdev_register
                0x120019fc       0x4c
 .text.blkdev_register
                0xffffffffffffffff       0x4c /alps/mprelease/MPload/ALPS.JB2.MP.V1.3_VANZO89_WET_JB2/source/alps/mediatek/preloader/out/blkdev.o
                0x120019fc                blkdev_register

.text.blkdev_get
                0x12001a48       0x30
 .text.blkdev_get
                0xffffffffffffffff       0x30 /alps/mprelease/MPload/ALPS.JB2.MP.V1.3_VANZO89_WET_JB2/source/alps/mediatek/preloader/out/blkdev.o
                0x12001a48                blkdev_get

.text.blkdev_read
                0x12001a78      0x260
 .text.blkdev_read
                0xffffffffffffffff      0x260 /alps/mprelease/MPload/ALPS.JB2.MP.V1.3_VANZO89_WET_JB2/source/alps/mediatek/preloader/out/blkdev.o
                0x12001a78                blkdev_read

.text.blkdev_write
                0x12001cd8      0x2b0
 .text.blkdev_write
                0xffffffffffffffff      0x2b0 /alps/mprelease/MPload/ALPS.JB2.MP.V1.3_VANZO89_WET_JB2/source/alps/mediatek/preloader/out/blkdev.o
                0x12001cd8                blkdev_write

.text.buf_input_init
                0x12001f88       0x7c
 .text.buf_input_init
                0xffffffffffffffff       0x7c /alps/mprelease/MPload/ALPS.JB2.MP.V1.3_VANZO89_WET_JB2/source/alps/mediatek/preloader/out/circbuf.o
                0x12001f88                buf_input_init

.text.buf_output_init
                0x12002004       0x7c
 .text.buf_output_init
                0xffffffffffffffff       0x7c /alps/mprelease/MPload/ALPS.JB2.MP.V1.3_VANZO89_WET_JB2/source/alps/mediatek/preloader/out/circbuf.o
                0x12002004                buf_output_init

.text.buf_pop   0x12002080       0x68
 .text.buf_pop  0xffffffffffffffff       0x68 /alps/mprelease/MPload/ALPS.JB2.MP.V1.3_VANZO89_WET_JB2/source/alps/mediatek/preloader/out/circbuf.o
                0x12002080                buf_pop

.text.buf_push  0x120020e8       0x4c
 .text.buf_push
                0xffffffffffffffff       0x4c /alps/mprelease/MPload/ALPS.JB2.MP.V1.3_VANZO89_WET_JB2/source/alps/mediatek/preloader/out/circbuf.o
                0x120020e8                buf_push

.text.cust_part_init
                0x12002134        0x4
 .text.cust_part_init
                0xffffffffffffffff        0x4 /alps/mprelease/MPload/ALPS.JB2.MP.V1.3_VANZO89_WET_JB2/source/alps/mediatek/preloader/out/cust_part.o
                0x12002134                cust_part_init

.text.cust_part_tbl
                0x12002138       0x10
 .text.cust_part_tbl
                0xffffffffffffffff       0x10 /alps/mprelease/MPload/ALPS.JB2.MP.V1.3_VANZO89_WET_JB2/source/alps/mediatek/preloader/out/cust_part.o
                0x12002138                cust_part_tbl

.text.uffs.part.0
                0x12002148       0x48
 .text.uffs.part.0
                0xffffffffffffffff       0x48 /alps/mprelease/MPload/ALPS.JB2.MP.V1.3_VANZO89_WET_JB2/source/alps/mediatek/preloader/out/device_apc.o

.text.device_APC_dom_setup
                0x12002190      0x194
 .text.device_APC_dom_setup
                0xffffffffffffffff      0x194 /alps/mprelease/MPload/ALPS.JB2.MP.V1.3_VANZO89_WET_JB2/source/alps/mediatek/preloader/out/device_apc.o
                0x12002190                device_APC_dom_setup

.text.__div0    0x12002324       0x20
 .text.__div0   0xffffffffffffffff       0x20 /alps/mprelease/MPload/ALPS.JB2.MP.V1.3_VANZO89_WET_JB2/source/alps/mediatek/preloader/out/div0.o
                0x12002324                __div0

.text.usbdl_put_word
                0x12002344       0x34
 .text.usbdl_put_word
                0xffffffffffffffff       0x34 /alps/mprelease/MPload/ALPS.JB2.MP.V1.3_VANZO89_WET_JB2/source/alps/mediatek/preloader/out/download.o

.text.usbdl_put_dword
                0x12002378       0x44
 .text.usbdl_put_dword
                0xffffffffffffffff       0x44 /alps/mprelease/MPload/ALPS.JB2.MP.V1.3_VANZO89_WET_JB2/source/alps/mediatek/preloader/out/download.o

.text.usbdl_get_word
                0x120023bc       0x44
 .text.usbdl_get_word
                0xffffffffffffffff       0x44 /alps/mprelease/MPload/ALPS.JB2.MP.V1.3_VANZO89_WET_JB2/source/alps/mediatek/preloader/out/download.o

.text.usbdl_get_dword
                0x12002400       0x5c
 .text.usbdl_get_dword
                0xffffffffffffffff       0x5c /alps/mprelease/MPload/ALPS.JB2.MP.V1.3_VANZO89_WET_JB2/source/alps/mediatek/preloader/out/download.o

.text.usbdl_read16
                0x1200245c       0xbc
 .text.usbdl_read16
                0xffffffffffffffff       0xbc /alps/mprelease/MPload/ALPS.JB2.MP.V1.3_VANZO89_WET_JB2/source/alps/mediatek/preloader/out/download.o

.text.usbdl_write16
                0x12002518       0xcc
 .text.usbdl_write16
                0xffffffffffffffff       0xcc /alps/mprelease/MPload/ALPS.JB2.MP.V1.3_VANZO89_WET_JB2/source/alps/mediatek/preloader/out/download.o

.text.usbdl_handler
                0x120025e4      0x968
 .text.usbdl_handler
                0xffffffffffffffff      0x968 /alps/mprelease/MPload/ALPS.JB2.MP.V1.3_VANZO89_WET_JB2/source/alps/mediatek/preloader/out/download.o
                0x120025e4                usbdl_handler

.text.calib_cmd_addr_output_dly_factor_handler
                0x12002f4c      0x15c
 .text.calib_cmd_addr_output_dly_factor_handler
                0xffffffffffffffff      0x15c /alps/mprelease/MPload/ALPS.JB2.MP.V1.3_VANZO89_WET_JB2/source/alps/mediatek/preloader/out/dramc_calib.o

.text.do_sw_rx_dq_dqs_calib
                0x120030a8      0x690
 .text.do_sw_rx_dq_dqs_calib
                0xffffffffffffffff      0x690 /alps/mprelease/MPload/ALPS.JB2.MP.V1.3_VANZO89_WET_JB2/source/alps/mediatek/preloader/out/dramc_calib.o
                0x120030a8                do_sw_rx_dq_dqs_calib

.text.do_sw_tx_dq_dqs_calib
                0x12003738      0x6d8
 .text.do_sw_tx_dq_dqs_calib
                0xffffffffffffffff      0x6d8 /alps/mprelease/MPload/ALPS.JB2.MP.V1.3_VANZO89_WET_JB2/source/alps/mediatek/preloader/out/dramc_calib.o
                0x12003738                do_sw_tx_dq_dqs_calib

.text.dramc_calib
                0x12003e10      0x298
 .text.dramc_calib
                0xffffffffffffffff      0x298 /alps/mprelease/MPload/ALPS.JB2.MP.V1.3_VANZO89_WET_JB2/source/alps/mediatek/preloader/out/dramc_calib.o
                0x12003e10                dramc_calib

.text.dramc_dma_test
                0x120040a8       0xac
 .text.dramc_dma_test
                0xffffffffffffffff       0xac /alps/mprelease/MPload/ALPS.JB2.MP.V1.3_VANZO89_WET_JB2/source/alps/mediatek/preloader/out/dramc_dle_cal.o
                0x120040a8                dramc_dma_test

.text.ett_print_dle_before_each_round_of_loop_zero
                0x12004154        0x4
 .text.ett_print_dle_before_each_round_of_loop_zero
                0xffffffffffffffff        0x4 /alps/mprelease/MPload/ALPS.JB2.MP.V1.3_VANZO89_WET_JB2/source/alps/mediatek/preloader/out/dramc_dle_cal.o
                0x12004154                ett_print_dle_before_each_round_of_loop_zero

.text.ett_print_dle_after_each_round_of_loop_zero
                0x12004158       0x1c
 .text.ett_print_dle_after_each_round_of_loop_zero
                0xffffffffffffffff       0x1c /alps/mprelease/MPload/ALPS.JB2.MP.V1.3_VANZO89_WET_JB2/source/alps/mediatek/preloader/out/dramc_dle_cal.o
                0x12004158                ett_print_dle_after_each_round_of_loop_zero

.text.ett_calc_dle_opt_value
                0x12004174        0x4
 .text.ett_calc_dle_opt_value
                0xffffffffffffffff        0x4 /alps/mprelease/MPload/ALPS.JB2.MP.V1.3_VANZO89_WET_JB2/source/alps/mediatek/preloader/out/dramc_dle_cal.o
                0x12004174                ett_calc_dle_opt_value

.text.ett_print_dle_after_finish_loop_n
                0x12004178       0x18
 .text.ett_print_dle_after_finish_loop_n
                0xffffffffffffffff       0x18 /alps/mprelease/MPload/ALPS.JB2.MP.V1.3_VANZO89_WET_JB2/source/alps/mediatek/preloader/out/dramc_dle_cal.o
                0x12004178                ett_print_dle_after_finish_loop_n

.text.ett_print_dle_before_start_loop_zero
                0x12004190       0x30
 .text.ett_print_dle_before_start_loop_zero
                0xffffffffffffffff       0x30 /alps/mprelease/MPload/ALPS.JB2.MP.V1.3_VANZO89_WET_JB2/source/alps/mediatek/preloader/out/dramc_dle_cal.o
                0x12004190                ett_print_dle_before_start_loop_zero

.text.dle_factor_handler
                0x120041c0       0xf4
 .text.dle_factor_handler
                0xffffffffffffffff       0xf4 /alps/mprelease/MPload/ALPS.JB2.MP.V1.3_VANZO89_WET_JB2/source/alps/mediatek/preloader/out/dramc_dle_cal.o
                0x120041c0                dle_factor_handler

.text.ett_print_dle_result
                0x120042b4       0xa4
 .text.ett_print_dle_result
                0xffffffffffffffff       0xa4 /alps/mprelease/MPload/ALPS.JB2.MP.V1.3_VANZO89_WET_JB2/source/alps/mediatek/preloader/out/dramc_dle_cal.o
                0x120042b4                ett_print_dle_result

.text.ett_print_dle_banner
                0x12004358       0x80
 .text.ett_print_dle_banner
                0xffffffffffffffff       0x80 /alps/mprelease/MPload/ALPS.JB2.MP.V1.3_VANZO89_WET_JB2/source/alps/mediatek/preloader/out/dramc_dle_cal.o
                0x12004358                ett_print_dle_banner

.text.do_dle_calib
                0x120043d8      0x128
 .text.do_dle_calib
                0xffffffffffffffff      0x128 /alps/mprelease/MPload/ALPS.JB2.MP.V1.3_VANZO89_WET_JB2/source/alps/mediatek/preloader/out/dramc_dle_cal.o
                0x120043d8                do_dle_calib

.text.ett_print_dqs_gw_banner
                0x12004500        0x4
 .text.ett_print_dqs_gw_banner
                0xffffffffffffffff        0x4 /alps/mprelease/MPload/ALPS.JB2.MP.V1.3_VANZO89_WET_JB2/source/alps/mediatek/preloader/out/dramc_dqs_gw.o
                0x12004500                ett_print_dqs_gw_banner

.text.ett_print_dqs_gw_before_start_loop_zero
                0x12004504        0x4
 .text.ett_print_dqs_gw_before_start_loop_zero
                0xffffffffffffffff        0x4 /alps/mprelease/MPload/ALPS.JB2.MP.V1.3_VANZO89_WET_JB2/source/alps/mediatek/preloader/out/dramc_dqs_gw.o
                0x12004504                ett_print_dqs_gw_before_start_loop_zero

.text.ett_print_dqs_gw_before_each_round_of_loop_zero
                0x12004508       0x64
 .text.ett_print_dqs_gw_before_each_round_of_loop_zero
                0xffffffffffffffff       0x64 /alps/mprelease/MPload/ALPS.JB2.MP.V1.3_VANZO89_WET_JB2/source/alps/mediatek/preloader/out/dramc_dqs_gw.o
                0x12004508                ett_print_dqs_gw_before_each_round_of_loop_zero

.text.ett_print_dqs_gw_after_each_round_of_loop_zero
                0x1200456c        0x4
 .text.ett_print_dqs_gw_after_each_round_of_loop_zero
                0xffffffffffffffff        0x4 /alps/mprelease/MPload/ALPS.JB2.MP.V1.3_VANZO89_WET_JB2/source/alps/mediatek/preloader/out/dramc_dqs_gw.o
                0x1200456c                ett_print_dqs_gw_after_each_round_of_loop_zero

.text.ett_calc_dqs_gw_opt_value
                0x12004570        0x4
 .text.ett_calc_dqs_gw_opt_value
                0xffffffffffffffff        0x4 /alps/mprelease/MPload/ALPS.JB2.MP.V1.3_VANZO89_WET_JB2/source/alps/mediatek/preloader/out/dramc_dqs_gw.o
                0x12004570                ett_calc_dqs_gw_opt_value

.text.ett_print_dqs_gw_fine_after_finish_loop_zero
                0x12004574        0x4
 .text.ett_print_dqs_gw_fine_after_finish_loop_zero
                0xffffffffffffffff        0x4 /alps/mprelease/MPload/ALPS.JB2.MP.V1.3_VANZO89_WET_JB2/source/alps/mediatek/preloader/out/dramc_dqs_gw.o
                0x12004574                ett_print_dqs_gw_fine_after_finish_loop_zero

.text.dqsi_gw_dly_fine_factor_handler
                0x12004578       0xb8
 .text.dqsi_gw_dly_fine_factor_handler
                0xffffffffffffffff       0xb8 /alps/mprelease/MPload/ALPS.JB2.MP.V1.3_VANZO89_WET_JB2/source/alps/mediatek/preloader/out/dramc_dqs_gw.o
                0x12004578                dqsi_gw_dly_fine_factor_handler

.text.dqsi_gw_dly_coarse_factor_handler
                0x12004630      0x100
 .text.dqsi_gw_dly_coarse_factor_handler
                0xffffffffffffffff      0x100 /alps/mprelease/MPload/ALPS.JB2.MP.V1.3_VANZO89_WET_JB2/source/alps/mediatek/preloader/out/dramc_dqs_gw.o
                0x12004630                dqsi_gw_dly_coarse_factor_handler

.text.ett_print_dqs_gw_result_1
                0x12004730       0xd8
 .text.ett_print_dqs_gw_result_1
                0xffffffffffffffff       0xd8 /alps/mprelease/MPload/ALPS.JB2.MP.V1.3_VANZO89_WET_JB2/source/alps/mediatek/preloader/out/dramc_dqs_gw.o

.text.ett_recursive_factor_tuning
                0x12004808       0xfc
 .text.ett_recursive_factor_tuning
                0xffffffffffffffff       0xfc /alps/mprelease/MPload/ALPS.JB2.MP.V1.3_VANZO89_WET_JB2/source/alps/mediatek/preloader/out/dramc_dqs_gw.o
                0x12004808                ett_recursive_factor_tuning

.text.dqsi_gw_dly_coarse_factor_handler_rank1
                0x12004904       0x94
 .text.dqsi_gw_dly_coarse_factor_handler_rank1
                0xffffffffffffffff       0x94 /alps/mprelease/MPload/ALPS.JB2.MP.V1.3_VANZO89_WET_JB2/source/alps/mediatek/preloader/out/dramc_dqs_gw.o
                0x12004904                dqsi_gw_dly_coarse_factor_handler_rank1

.text.dqsi_gw_dly_fine_factor_handler_rank1
                0x12004998       0xb8
 .text.dqsi_gw_dly_fine_factor_handler_rank1
                0xffffffffffffffff       0xb8 /alps/mprelease/MPload/ALPS.JB2.MP.V1.3_VANZO89_WET_JB2/source/alps/mediatek/preloader/out/dramc_dqs_gw.o
                0x12004998                dqsi_gw_dly_fine_factor_handler_rank1

.text.Sequence_Read
                0x12004a50      0x1ec
 .text.Sequence_Read
                0xffffffffffffffff      0x1ec /alps/mprelease/MPload/ALPS.JB2.MP.V1.3_VANZO89_WET_JB2/source/alps/mediatek/preloader/out/dramc_dqs_gw.o
                0x12004a50                Sequence_Read

.text.Do_Read_Test_DDR3
                0x12004c3c       0xa0
 .text.Do_Read_Test_DDR3
                0xffffffffffffffff       0xa0 /alps/mprelease/MPload/ALPS.JB2.MP.V1.3_VANZO89_WET_JB2/source/alps/mediatek/preloader/out/dramc_dqs_gw.o
                0x12004c3c                Do_Read_Test_DDR3

.text.Do_Read_Test_DDR2
                0x12004cdc       0x8c
 .text.Do_Read_Test_DDR2
                0xffffffffffffffff       0x8c /alps/mprelease/MPload/ALPS.JB2.MP.V1.3_VANZO89_WET_JB2/source/alps/mediatek/preloader/out/dramc_dqs_gw.o
                0x12004cdc                Do_Read_Test_DDR2

.text.cpu_read_test
                0x12004d68      0x214
 .text.cpu_read_test
                0xffffffffffffffff      0x214 /alps/mprelease/MPload/ALPS.JB2.MP.V1.3_VANZO89_WET_JB2/source/alps/mediatek/preloader/out/dramc_dqs_gw.o
                0x12004d68                cpu_read_test

.text.do_dqs_gw_calib_1
                0x12004f7c      0x258
 .text.do_dqs_gw_calib_1
                0xffffffffffffffff      0x258 /alps/mprelease/MPload/ALPS.JB2.MP.V1.3_VANZO89_WET_JB2/source/alps/mediatek/preloader/out/dramc_dqs_gw.o
                0x12004f7c                do_dqs_gw_calib_1

.text.mt_set_gpio_dir_chip
                0x120051d4       0x74
 .text.mt_set_gpio_dir_chip
                0xffffffffffffffff       0x74 /alps/mprelease/MPload/ALPS.JB2.MP.V1.3_VANZO89_WET_JB2/source/alps/mediatek/preloader/out/gpio.o
                0x120051d4                mt_set_gpio_dir_chip

.text.mt_set_gpio_pull_enable_chip
                0x12005248       0xf8
 .text.mt_set_gpio_pull_enable_chip
                0xffffffffffffffff       0xf8 /alps/mprelease/MPload/ALPS.JB2.MP.V1.3_VANZO89_WET_JB2/source/alps/mediatek/preloader/out/gpio.o
                0x12005248                mt_set_gpio_pull_enable_chip

.text.mt_set_gpio_pull_select_chip
                0x12005340       0xfc
 .text.mt_set_gpio_pull_select_chip
                0xffffffffffffffff       0xfc /alps/mprelease/MPload/ALPS.JB2.MP.V1.3_VANZO89_WET_JB2/source/alps/mediatek/preloader/out/gpio.o
                0x12005340                mt_set_gpio_pull_select_chip

.text.mt_set_gpio_mode_chip
                0x1200543c       0xd8
 .text.mt_set_gpio_mode_chip
                0xffffffffffffffff       0xd8 /alps/mprelease/MPload/ALPS.JB2.MP.V1.3_VANZO89_WET_JB2/source/alps/mediatek/preloader/out/gpio.o
                0x1200543c                mt_set_gpio_mode_chip

.text.mt_set_gpio_dir_ext
                0x12005514       0x74
 .text.mt_set_gpio_dir_ext
                0xffffffffffffffff       0x74 /alps/mprelease/MPload/ALPS.JB2.MP.V1.3_VANZO89_WET_JB2/source/alps/mediatek/preloader/out/gpio.o
                0x12005514                mt_set_gpio_dir_ext

.text.mt_set_gpio_pull_enable_ext
                0x12005588       0x74
 .text.mt_set_gpio_pull_enable_ext
                0xffffffffffffffff       0x74 /alps/mprelease/MPload/ALPS.JB2.MP.V1.3_VANZO89_WET_JB2/source/alps/mediatek/preloader/out/gpio.o
                0x12005588                mt_set_gpio_pull_enable_ext

.text.mt_set_gpio_pull_select_ext
                0x120055fc       0x74
 .text.mt_set_gpio_pull_select_ext
                0xffffffffffffffff       0x74 /alps/mprelease/MPload/ALPS.JB2.MP.V1.3_VANZO89_WET_JB2/source/alps/mediatek/preloader/out/gpio.o
                0x120055fc                mt_set_gpio_pull_select_ext

.text.mt_set_gpio_mode_ext
                0x12005670       0xa4
 .text.mt_set_gpio_mode_ext
                0xffffffffffffffff       0xa4 /alps/mprelease/MPload/ALPS.JB2.MP.V1.3_VANZO89_WET_JB2/source/alps/mediatek/preloader/out/gpio.o
                0x12005670                mt_set_gpio_mode_ext

.text.mt_set_gpio_dir
                0x12005714       0x10
 .text.mt_set_gpio_dir
                0xffffffffffffffff       0x10 /alps/mprelease/MPload/ALPS.JB2.MP.V1.3_VANZO89_WET_JB2/source/alps/mediatek/preloader/out/gpio.o
                0x12005714                mt_set_gpio_dir

.text.mt_set_gpio_pull_enable
                0x12005724       0x10
 .text.mt_set_gpio_pull_enable
                0xffffffffffffffff       0x10 /alps/mprelease/MPload/ALPS.JB2.MP.V1.3_VANZO89_WET_JB2/source/alps/mediatek/preloader/out/gpio.o
                0x12005724                mt_set_gpio_pull_enable

.text.mt_set_gpio_pull_select
                0x12005734       0x10
 .text.mt_set_gpio_pull_select
                0xffffffffffffffff       0x10 /alps/mprelease/MPload/ALPS.JB2.MP.V1.3_VANZO89_WET_JB2/source/alps/mediatek/preloader/out/gpio.o
                0x12005734                mt_set_gpio_pull_select

.text.mt_set_gpio_mode
                0x12005744       0x10
 .text.mt_set_gpio_mode
                0xffffffffffffffff       0x10 /alps/mprelease/MPload/ALPS.JB2.MP.V1.3_VANZO89_WET_JB2/source/alps/mediatek/preloader/out/gpio.o
                0x12005744                mt_set_gpio_mode

.text.mt_gpio_set_power
                0x12005754       0x58
 .text.mt_gpio_set_power
                0xffffffffffffffff       0x58 /alps/mprelease/MPload/ALPS.JB2.MP.V1.3_VANZO89_WET_JB2/source/alps/mediatek/preloader/out/gpio.o
                0x12005754                mt_gpio_set_power

.text.mt_gpio_init
                0x120057ac        0x4
 .text.mt_gpio_init
                0xffffffffffffffff        0x4 /alps/mprelease/MPload/ALPS.JB2.MP.V1.3_VANZO89_WET_JB2/source/alps/mediatek/preloader/out/gpio.o
                0x120057ac                mt_gpio_init

.text.uart_recv
                0x120057b0        0x4
 .text.uart_recv
                0xffffffffffffffff        0x4 /alps/mprelease/MPload/ALPS.JB2.MP.V1.3_VANZO89_WET_JB2/source/alps/mediatek/preloader/out/handshake_uart.o

.text.uart_send
                0x120057b4       0x30
 .text.uart_send
                0xffffffffffffffff       0x30 /alps/mprelease/MPload/ALPS.JB2.MP.V1.3_VANZO89_WET_JB2/source/alps/mediatek/preloader/out/handshake_uart.o

.text.uart_handshake_init
                0x120057e4       0x70
 .text.uart_handshake_init
                0xffffffffffffffff       0x70 /alps/mprelease/MPload/ALPS.JB2.MP.V1.3_VANZO89_WET_JB2/source/alps/mediatek/preloader/out/handshake_uart.o
                0x120057e4                uart_handshake_init

.text.uart_handshake
                0x12005854      0x1e8
 .text.uart_handshake
                0xffffffffffffffff      0x1e8 /alps/mprelease/MPload/ALPS.JB2.MP.V1.3_VANZO89_WET_JB2/source/alps/mediatek/preloader/out/handshake_uart.o
                0x12005854                uart_handshake

.text.usb_recv  0x12005a3c       0x84
 .text.usb_recv
                0xffffffffffffffff       0x84 /alps/mprelease/MPload/ALPS.JB2.MP.V1.3_VANZO89_WET_JB2/source/alps/mediatek/preloader/out/handshake_usb.o

.text.usb_send  0x12005ac0       0x24
 .text.usb_send
                0xffffffffffffffff       0x24 /alps/mprelease/MPload/ALPS.JB2.MP.V1.3_VANZO89_WET_JB2/source/alps/mediatek/preloader/out/handshake_usb.o

.text.usb_handshake
                0x12005ae4      0x474
 .text.usb_handshake
                0xffffffffffffffff      0x474 /alps/mprelease/MPload/ALPS.JB2.MP.V1.3_VANZO89_WET_JB2/source/alps/mediatek/preloader/out/handshake_usb.o
                0x12005ae4                usb_handshake

.text.bldr_cmd_handler
                0x12005f58      0x4c8
 .text.bldr_cmd_handler
                0xffffffffffffffff      0x4c8 /alps/mprelease/MPload/ALPS.JB2.MP.V1.3_VANZO89_WET_JB2/source/alps/mediatek/preloader/out/main.o

.text.bldr_load_part
                0x12006420       0x5c
 .text.bldr_load_part
                0xffffffffffffffff       0x5c /alps/mprelease/MPload/ALPS.JB2.MP.V1.3_VANZO89_WET_JB2/source/alps/mediatek/preloader/out/main.o
                0x12006420                bldr_load_part

.text.bldr_jump
                0x1200647c       0xa4
 .text.bldr_jump
                0xffffffffffffffff       0xa4 /alps/mprelease/MPload/ALPS.JB2.MP.V1.3_VANZO89_WET_JB2/source/alps/mediatek/preloader/out/main.o
                0x1200647c                bldr_jump

.text.startup.main
                0x12006520      0x26c
 .text.startup.main
                0xffffffffffffffff      0x26c /alps/mprelease/MPload/ALPS.JB2.MP.V1.3_VANZO89_WET_JB2/source/alps/mediatek/preloader/out/main.o
                0x12006520                main

.text.mmc_switch_part
                0x1200678c       0xb8
 .text.mmc_switch_part
                0xffffffffffffffff       0xb8 /alps/mprelease/MPload/ALPS.JB2.MP.V1.3_VANZO89_WET_JB2/source/alps/mediatek/preloader/out/mmc_common_inter.o

.text.mmc_bwrite
                0x12006844       0x7c
 .text.mmc_bwrite
                0xffffffffffffffff       0x7c /alps/mprelease/MPload/ALPS.JB2.MP.V1.3_VANZO89_WET_JB2/source/alps/mediatek/preloader/out/mmc_common_inter.o

.text.mmc_bread
                0x120068c0       0x7c
 .text.mmc_bread
                0xffffffffffffffff       0x7c /alps/mprelease/MPload/ALPS.JB2.MP.V1.3_VANZO89_WET_JB2/source/alps/mediatek/preloader/out/mmc_common_inter.o

.text.mmc_init_device
                0x1200693c      0x2d0
 .text.mmc_init_device
                0xffffffffffffffff      0x2d0 /alps/mprelease/MPload/ALPS.JB2.MP.V1.3_VANZO89_WET_JB2/source/alps/mediatek/preloader/out/mmc_common_inter.o
                0x1200693c                mmc_init_device

.text.mmc_get_device_id
                0x12006c0c      0x114
 .text.mmc_get_device_id
                0xffffffffffffffff      0x114 /alps/mprelease/MPload/ALPS.JB2.MP.V1.3_VANZO89_WET_JB2/source/alps/mediatek/preloader/out/mmc_common_inter.o
                0x12006c0c                mmc_get_device_id

.text.unstuff_bits
                0x12006d20       0x40
 .text.unstuff_bits
                0xffffffffffffffff       0x40 /alps/mprelease/MPload/ALPS.JB2.MP.V1.3_VANZO89_WET_JB2/source/alps/mediatek/preloader/out/mmc_core.o

.text.mmc_cmd   0x12006d60       0x30
 .text.mmc_cmd  0xffffffffffffffff       0x30 /alps/mprelease/MPload/ALPS.JB2.MP.V1.3_VANZO89_WET_JB2/source/alps/mediatek/preloader/out/mmc_core.o

.text.mmc_send_if_cond
                0x12006d90       0x70
 .text.mmc_send_if_cond
                0xffffffffffffffff       0x70 /alps/mprelease/MPload/ALPS.JB2.MP.V1.3_VANZO89_WET_JB2/source/alps/mediatek/preloader/out/mmc_core.o

.text.mmc_app_cmd
                0x12006e00       0x74
 .text.mmc_app_cmd
                0xffffffffffffffff       0x74 /alps/mprelease/MPload/ALPS.JB2.MP.V1.3_VANZO89_WET_JB2/source/alps/mediatek/preloader/out/mmc_core.o

.text.mmc_send_app_op_cond
                0x12006e74       0x8c
 .text.mmc_send_app_op_cond
                0xffffffffffffffff       0x8c /alps/mprelease/MPload/ALPS.JB2.MP.V1.3_VANZO89_WET_JB2/source/alps/mediatek/preloader/out/mmc_core.o

.text.mmc_send_op_cond
                0x12006f00       0x94
 .text.mmc_send_op_cond
                0xffffffffffffffff       0x94 /alps/mprelease/MPload/ALPS.JB2.MP.V1.3_VANZO89_WET_JB2/source/alps/mediatek/preloader/out/mmc_core.o

.text.mmc_sd_switch.isra.0.constprop.3
                0x12006f94      0x108
 .text.mmc_sd_switch.isra.0.constprop.3
                0xffffffffffffffff      0x108 /alps/mprelease/MPload/ALPS.JB2.MP.V1.3_VANZO89_WET_JB2/source/alps/mediatek/preloader/out/mmc_core.o

.text.mmc_get_host
                0x1200709c       0x18
 .text.mmc_get_host
                0xffffffffffffffff       0x18 /alps/mprelease/MPload/ALPS.JB2.MP.V1.3_VANZO89_WET_JB2/source/alps/mediatek/preloader/out/mmc_core.o
                0x1200709c                mmc_get_host

.text.mmc_get_card
                0x120070b4       0x18
 .text.mmc_get_card
                0xffffffffffffffff       0x18 /alps/mprelease/MPload/ALPS.JB2.MP.V1.3_VANZO89_WET_JB2/source/alps/mediatek/preloader/out/mmc_core.o
                0x120070b4                mmc_get_card

.text.mmc_go_idle
                0x120070cc       0x38
 .text.mmc_go_idle
                0xffffffffffffffff       0x38 /alps/mprelease/MPload/ALPS.JB2.MP.V1.3_VANZO89_WET_JB2/source/alps/mediatek/preloader/out/mmc_core.o
                0x120070cc                mmc_go_idle

.text.mmc_send_status
                0x12007104       0x54
 .text.mmc_send_status
                0xffffffffffffffff       0x54 /alps/mprelease/MPload/ALPS.JB2.MP.V1.3_VANZO89_WET_JB2/source/alps/mediatek/preloader/out/mmc_core.o
                0x12007104                mmc_send_status

.text.mmc_select_card
                0x12007158       0x44
 .text.mmc_select_card
                0xffffffffffffffff       0x44 /alps/mprelease/MPload/ALPS.JB2.MP.V1.3_VANZO89_WET_JB2/source/alps/mediatek/preloader/out/mmc_core.o
                0x12007158                mmc_select_card

.text.mmc_switch
                0x1200719c       0xd4
 .text.mmc_switch
                0xffffffffffffffff       0xd4 /alps/mprelease/MPload/ALPS.JB2.MP.V1.3_VANZO89_WET_JB2/source/alps/mediatek/preloader/out/mmc_core.o
                0x1200719c                mmc_switch

.text.mmc_switch_hs
                0x12007270       0x78
 .text.mmc_switch_hs
                0xffffffffffffffff       0x78 /alps/mprelease/MPload/ALPS.JB2.MP.V1.3_VANZO89_WET_JB2/source/alps/mediatek/preloader/out/mmc_core.o
                0x12007270                mmc_switch_hs

.text.mmc_read_ext_csd
                0x120072e8      0x1b8
 .text.mmc_read_ext_csd
                0xffffffffffffffff      0x1b8 /alps/mprelease/MPload/ALPS.JB2.MP.V1.3_VANZO89_WET_JB2/source/alps/mediatek/preloader/out/mmc_core.o
                0x120072e8                mmc_read_ext_csd

.text.mmc_set_clock
                0x120074a0       0x2c
 .text.mmc_set_clock
                0xffffffffffffffff       0x2c /alps/mprelease/MPload/ALPS.JB2.MP.V1.3_VANZO89_WET_JB2/source/alps/mediatek/preloader/out/mmc_core.o
                0x120074a0                mmc_set_clock

.text.mmc_dev_bwrite
                0x120074cc      0x154
 .text.mmc_dev_bwrite
                0xffffffffffffffff      0x154 /alps/mprelease/MPload/ALPS.JB2.MP.V1.3_VANZO89_WET_JB2/source/alps/mediatek/preloader/out/mmc_core.o

.text.mmc_set_card_detect
                0x12007620       0x44
 .text.mmc_set_card_detect
                0xffffffffffffffff       0x44 /alps/mprelease/MPload/ALPS.JB2.MP.V1.3_VANZO89_WET_JB2/source/alps/mediatek/preloader/out/mmc_core.o
                0x12007620                mmc_set_card_detect

.text.mmc_set_blk_length
                0x12007664       0x5c
 .text.mmc_set_blk_length
                0xffffffffffffffff       0x5c /alps/mprelease/MPload/ALPS.JB2.MP.V1.3_VANZO89_WET_JB2/source/alps/mediatek/preloader/out/mmc_core.o
                0x12007664                mmc_set_blk_length

.text.mmc_set_bus_width
                0x120076c0      0x1e0
 .text.mmc_set_bus_width
                0xffffffffffffffff      0x1e0 /alps/mprelease/MPload/ALPS.JB2.MP.V1.3_VANZO89_WET_JB2/source/alps/mediatek/preloader/out/mmc_core.o
                0x120076c0                mmc_set_bus_width

.text.mmc_dev_bread
                0x120078a0      0x124
 .text.mmc_dev_bread
                0xffffffffffffffff      0x124 /alps/mprelease/MPload/ALPS.JB2.MP.V1.3_VANZO89_WET_JB2/source/alps/mediatek/preloader/out/mmc_core.o
                0x120078a0                mmc_dev_bread

.text.mmc_block_read
                0x120079c4       0xe8
 .text.mmc_block_read
                0xffffffffffffffff       0xe8 /alps/mprelease/MPload/ALPS.JB2.MP.V1.3_VANZO89_WET_JB2/source/alps/mediatek/preloader/out/mmc_core.o
                0x120079c4                mmc_block_read

.text.mmc_block_write
                0x12007aac       0xe8
 .text.mmc_block_write
                0xffffffffffffffff       0xe8 /alps/mprelease/MPload/ALPS.JB2.MP.V1.3_VANZO89_WET_JB2/source/alps/mediatek/preloader/out/mmc_core.o
                0x12007aac                mmc_block_write

.text.mmc_stuff_buff
                0x12007b94       0x78
 .text.mmc_stuff_buff
                0xffffffffffffffff       0x78 /alps/mprelease/MPload/ALPS.JB2.MP.V1.3_VANZO89_WET_JB2/source/alps/mediatek/preloader/out/mmc_core.o
                0x12007b94                mmc_stuff_buff

.text.mmc_get_sandisk_fwid
                0x12007c0c      0x190
 .text.mmc_get_sandisk_fwid
                0xffffffffffffffff      0x190 /alps/mprelease/MPload/ALPS.JB2.MP.V1.3_VANZO89_WET_JB2/source/alps/mediatek/preloader/out/mmc_core.o
                0x12007c0c                mmc_get_sandisk_fwid

.text.mmc_init_mem_card
                0x12007d9c      0x984
 .text.mmc_init_mem_card
                0xffffffffffffffff      0x984 /alps/mprelease/MPload/ALPS.JB2.MP.V1.3_VANZO89_WET_JB2/source/alps/mediatek/preloader/out/mmc_core.o
                0x12007d9c                mmc_init_mem_card

.text.mmc_init_card
                0x12008720      0x2a4
 .text.mmc_init_card
                0xffffffffffffffff      0x2a4 /alps/mprelease/MPload/ALPS.JB2.MP.V1.3_VANZO89_WET_JB2/source/alps/mediatek/preloader/out/mmc_core.o
                0x12008720                mmc_init_card

.text.mmc_init_host
                0x120089c4       0x28
 .text.mmc_init_host
                0xffffffffffffffff       0x28 /alps/mprelease/MPload/ALPS.JB2.MP.V1.3_VANZO89_WET_JB2/source/alps/mediatek/preloader/out/mmc_core.o
                0x120089c4                mmc_init_host

.text.mmc_init  0x120089ec       0x78
 .text.mmc_init
                0xffffffffffffffff       0x78 /alps/mprelease/MPload/ALPS.JB2.MP.V1.3_VANZO89_WET_JB2/source/alps/mediatek/preloader/out/mmc_core.o
                0x120089ec                mmc_init

.text.msdc_clr_fifo
                0x12008a64       0x4c
 .text.msdc_clr_fifo
                0xffffffffffffffff       0x4c /alps/mprelease/MPload/ALPS.JB2.MP.V1.3_VANZO89_WET_JB2/source/alps/mediatek/preloader/out/msdc.o
                0x12008a64                msdc_clr_fifo

.text.msdc_pin_pud.isra.1
                0x12008ab0      0x178
 .text.msdc_pin_pud.isra.1
                0xffffffffffffffff      0x178 /alps/mprelease/MPload/ALPS.JB2.MP.V1.3_VANZO89_WET_JB2/source/alps/mediatek/preloader/out/msdc.o

.text.msdc_set_timeout
                0x12008c28       0x5c
 .text.msdc_set_timeout
                0xffffffffffffffff       0x5c /alps/mprelease/MPload/ALPS.JB2.MP.V1.3_VANZO89_WET_JB2/source/alps/mediatek/preloader/out/msdc.o
                0x12008c28                msdc_set_timeout

.text.msdc_set_blklen
                0x12008c84       0x18
 .text.msdc_set_blklen
                0xffffffffffffffff       0x18 /alps/mprelease/MPload/ALPS.JB2.MP.V1.3_VANZO89_WET_JB2/source/alps/mediatek/preloader/out/msdc.o
                0x12008c84                msdc_set_blklen

.text.msdc_set_blknum
                0x12008c9c        0xc
 .text.msdc_set_blknum
                0xffffffffffffffff        0xc /alps/mprelease/MPload/ALPS.JB2.MP.V1.3_VANZO89_WET_JB2/source/alps/mediatek/preloader/out/msdc.o
                0x12008c9c                msdc_set_blknum

.text.msdc_reset
                0x12008ca8       0x48
 .text.msdc_reset
                0xffffffffffffffff       0x48 /alps/mprelease/MPload/ALPS.JB2.MP.V1.3_VANZO89_WET_JB2/source/alps/mediatek/preloader/out/msdc.o
                0x12008ca8                msdc_reset

.text.msdc_abort
                0x12008cf0       0x34
 .text.msdc_abort
                0xffffffffffffffff       0x34 /alps/mprelease/MPload/ALPS.JB2.MP.V1.3_VANZO89_WET_JB2/source/alps/mediatek/preloader/out/msdc.o
                0x12008cf0                msdc_abort

.text.msdc_intr_wait
                0x12008d24       0x1c
 .text.msdc_intr_wait
                0xffffffffffffffff       0x1c /alps/mprelease/MPload/ALPS.JB2.MP.V1.3_VANZO89_WET_JB2/source/alps/mediatek/preloader/out/msdc.o
                0x12008d24                msdc_intr_wait

.text.msdc_intr_unmask
                0x12008d40       0x14
 .text.msdc_intr_unmask
                0xffffffffffffffff       0x14 /alps/mprelease/MPload/ALPS.JB2.MP.V1.3_VANZO89_WET_JB2/source/alps/mediatek/preloader/out/msdc.o
                0x12008d40                msdc_intr_unmask

.text.msdc_send_cmd
                0x12008d54      0x240
 .text.msdc_send_cmd
                0xffffffffffffffff      0x240 /alps/mprelease/MPload/ALPS.JB2.MP.V1.3_VANZO89_WET_JB2/source/alps/mediatek/preloader/out/msdc.o
                0x12008d54                msdc_send_cmd

.text.msdc_wait_rsp
                0x12008f94      0x154
 .text.msdc_wait_rsp
                0xffffffffffffffff      0x154 /alps/mprelease/MPload/ALPS.JB2.MP.V1.3_VANZO89_WET_JB2/source/alps/mediatek/preloader/out/msdc.o
                0x12008f94                msdc_wait_rsp

.text.msdc_pio_read_word
                0x120090e8      0x130
 .text.msdc_pio_read_word
                0xffffffffffffffff      0x130 /alps/mprelease/MPload/ALPS.JB2.MP.V1.3_VANZO89_WET_JB2/source/alps/mediatek/preloader/out/msdc.o
                0x120090e8                msdc_pio_read_word

.text.msdc_pio_read
                0x12009218       0x24
 .text.msdc_pio_read
                0xffffffffffffffff       0x24 /alps/mprelease/MPload/ALPS.JB2.MP.V1.3_VANZO89_WET_JB2/source/alps/mediatek/preloader/out/msdc.o
                0x12009218                msdc_pio_read

.text.msdc_pio_write_word
                0x1200923c      0x100
 .text.msdc_pio_write_word
                0xffffffffffffffff      0x100 /alps/mprelease/MPload/ALPS.JB2.MP.V1.3_VANZO89_WET_JB2/source/alps/mediatek/preloader/out/msdc.o
                0x1200923c                msdc_pio_write_word

.text.msdc_pio_write
                0x1200933c       0x24
 .text.msdc_pio_write
                0xffffffffffffffff       0x24 /alps/mprelease/MPload/ALPS.JB2.MP.V1.3_VANZO89_WET_JB2/source/alps/mediatek/preloader/out/msdc.o
                0x1200933c                msdc_pio_write

.text.msdc_config_clksrc
                0x12009360       0x14
 .text.msdc_config_clksrc
                0xffffffffffffffff       0x14 /alps/mprelease/MPload/ALPS.JB2.MP.V1.3_VANZO89_WET_JB2/source/alps/mediatek/preloader/out/msdc.o
                0x12009360                msdc_config_clksrc

.text.msdc_config_clock
                0x12009374      0x16c
 .text.msdc_config_clock
                0xffffffffffffffff      0x16c /alps/mprelease/MPload/ALPS.JB2.MP.V1.3_VANZO89_WET_JB2/source/alps/mediatek/preloader/out/msdc.o
                0x12009374                msdc_config_clock

.text.msdc_config_bus
                0x120094e0       0x44
 .text.msdc_config_bus
                0xffffffffffffffff       0x44 /alps/mprelease/MPload/ALPS.JB2.MP.V1.3_VANZO89_WET_JB2/source/alps/mediatek/preloader/out/msdc.o
                0x120094e0                msdc_config_bus

.text.msdc_config_pin
                0x12009524       0x88
 .text.msdc_config_pin
                0xffffffffffffffff       0x88 /alps/mprelease/MPload/ALPS.JB2.MP.V1.3_VANZO89_WET_JB2/source/alps/mediatek/preloader/out/msdc.o
                0x12009524                msdc_config_pin

.text.msdc_clock
                0x120095ac        0x4
 .text.msdc_clock
                0xffffffffffffffff        0x4 /alps/mprelease/MPload/ALPS.JB2.MP.V1.3_VANZO89_WET_JB2/source/alps/mediatek/preloader/out/msdc.o
                0x120095ac                msdc_clock

.text.msdc_host_power
                0x120095b0       0x3c
 .text.msdc_host_power
                0xffffffffffffffff       0x3c /alps/mprelease/MPload/ALPS.JB2.MP.V1.3_VANZO89_WET_JB2/source/alps/mediatek/preloader/out/msdc.o
                0x120095b0                msdc_host_power

.text.msdc_card_power
                0x120095ec        0x4
 .text.msdc_card_power
                0xffffffffffffffff        0x4 /alps/mprelease/MPload/ALPS.JB2.MP.V1.3_VANZO89_WET_JB2/source/alps/mediatek/preloader/out/msdc.o
                0x120095ec                msdc_card_power

.text.msdc_power
                0x120095f0       0x48
 .text.msdc_power
                0xffffffffffffffff       0x48 /alps/mprelease/MPload/ALPS.JB2.MP.V1.3_VANZO89_WET_JB2/source/alps/mediatek/preloader/out/msdc.o
                0x120095f0                msdc_power

.text.msdc_reset_tune_counter
                0x12009638        0xc
 .text.msdc_reset_tune_counter
                0xffffffffffffffff        0xc /alps/mprelease/MPload/ALPS.JB2.MP.V1.3_VANZO89_WET_JB2/source/alps/mediatek/preloader/out/msdc.o
                0x12009638                msdc_reset_tune_counter

.text.msdc_tune_cmdrsp
                0x12009644      0x37c
 .text.msdc_tune_cmdrsp
                0xffffffffffffffff      0x37c /alps/mprelease/MPload/ALPS.JB2.MP.V1.3_VANZO89_WET_JB2/source/alps/mediatek/preloader/out/msdc.o
                0x12009644                msdc_tune_cmdrsp

.text.msdc_cmd  0x120099c0       0x74
 .text.msdc_cmd
                0xffffffffffffffff       0x74 /alps/mprelease/MPload/ALPS.JB2.MP.V1.3_VANZO89_WET_JB2/source/alps/mediatek/preloader/out/msdc.o
                0x120099c0                msdc_cmd

.text.msdc_abort_handler
                0x12009a34      0x138
 .text.msdc_abort_handler
                0xffffffffffffffff      0x138 /alps/mprelease/MPload/ALPS.JB2.MP.V1.3_VANZO89_WET_JB2/source/alps/mediatek/preloader/out/msdc.o
                0x12009a34                msdc_abort_handler

.text.msdc_pio_bwrite
                0x12009b6c      0x174
 .text.msdc_pio_bwrite
                0xffffffffffffffff      0x174 /alps/mprelease/MPload/ALPS.JB2.MP.V1.3_VANZO89_WET_JB2/source/alps/mediatek/preloader/out/msdc.o
                0x12009b6c                msdc_pio_bwrite

.text.msdc_pio_bread
                0x12009ce0      0x188
 .text.msdc_pio_bread
                0xffffffffffffffff      0x188 /alps/mprelease/MPload/ALPS.JB2.MP.V1.3_VANZO89_WET_JB2/source/alps/mediatek/preloader/out/msdc.o
                0x12009ce0                msdc_pio_bread

.text.msdc_pio_send_sandisk_fwid
                0x12009e68       0xe8
 .text.msdc_pio_send_sandisk_fwid
                0xffffffffffffffff       0xe8 /alps/mprelease/MPload/ALPS.JB2.MP.V1.3_VANZO89_WET_JB2/source/alps/mediatek/preloader/out/msdc.o
                0x12009e68                msdc_pio_send_sandisk_fwid

.text.msdc_pio_get_sandisk_fwid
                0x12009f50       0xfc
 .text.msdc_pio_get_sandisk_fwid
                0xffffffffffffffff       0xfc /alps/mprelease/MPload/ALPS.JB2.MP.V1.3_VANZO89_WET_JB2/source/alps/mediatek/preloader/out/msdc.o
                0x12009f50                msdc_pio_get_sandisk_fwid

.text.msdc_tune_bread
                0x1200a04c      0x4e0
 .text.msdc_tune_bread
                0xffffffffffffffff      0x4e0 /alps/mprelease/MPload/ALPS.JB2.MP.V1.3_VANZO89_WET_JB2/source/alps/mediatek/preloader/out/msdc.o
                0x1200a04c                msdc_tune_bread

.text.msdc_tune_read
                0x1200a52c      0x324
 .text.msdc_tune_read
                0xffffffffffffffff      0x324 /alps/mprelease/MPload/ALPS.JB2.MP.V1.3_VANZO89_WET_JB2/source/alps/mediatek/preloader/out/msdc.o
                0x1200a52c                msdc_tune_read

.text.msdc_init
                0x1200a850      0x488
 .text.msdc_init
                0xffffffffffffffff      0x488 /alps/mprelease/MPload/ALPS.JB2.MP.V1.3_VANZO89_WET_JB2/source/alps/mediatek/preloader/out/msdc.o
                0x1200a850                msdc_init

.text.msdc_uffs
                0x1200acd8       0x54
 .text.msdc_uffs
                0xffffffffffffffff       0x54 /alps/mprelease/MPload/ALPS.JB2.MP.V1.3_VANZO89_WET_JB2/source/alps/mediatek/preloader/out/msdc_utils.o
                0x1200acd8                msdc_uffs

.text.msdc_set_field
                0x1200ad2c       0x2c
 .text.msdc_set_field
                0xffffffffffffffff       0x2c /alps/mprelease/MPload/ALPS.JB2.MP.V1.3_VANZO89_WET_JB2/source/alps/mediatek/preloader/out/msdc_utils.o
                0x1200ad2c                msdc_set_field

.text.msdc_get_field
                0x1200ad58       0x28
 .text.msdc_get_field
                0xffffffffffffffff       0x28 /alps/mprelease/MPload/ALPS.JB2.MP.V1.3_VANZO89_WET_JB2/source/alps/mediatek/preloader/out/msdc_utils.o
                0x1200ad58                msdc_get_field

.text.mt_get_mdl_number
                0x1200ad80      0x16c
 .text.mt_get_mdl_number
                0xffffffffffffffff      0x16c /alps/mprelease/MPload/ALPS.JB2.MP.V1.3_VANZO89_WET_JB2/source/alps/mediatek/preloader/out/mt_emi.o

.text.mt_get_dram_type
                0x1200aeec       0x54
 .text.mt_get_dram_type
                0xffffffffffffffff       0x54 /alps/mprelease/MPload/ALPS.JB2.MP.V1.3_VANZO89_WET_JB2/source/alps/mediatek/preloader/out/mt_emi.o
                0x1200aeec                mt_get_dram_type

.text.get_dram_rank_nr
                0x1200af40       0x5c
 .text.get_dram_rank_nr
                0xffffffffffffffff       0x5c /alps/mprelease/MPload/ALPS.JB2.MP.V1.3_VANZO89_WET_JB2/source/alps/mediatek/preloader/out/mt_emi.o
                0x1200af40                get_dram_rank_nr

.text.get_dram_rank_size
                0x1200af9c       0x84
 .text.get_dram_rank_size
                0xffffffffffffffff       0x84 /alps/mprelease/MPload/ALPS.JB2.MP.V1.3_VANZO89_WET_JB2/source/alps/mediatek/preloader/out/mt_emi.o
                0x1200af9c                get_dram_rank_size

.text.mt_set_emi
                0x1200b020      0xba4
 .text.mt_set_emi
                0xffffffffffffffff      0xba4 /alps/mprelease/MPload/ALPS.JB2.MP.V1.3_VANZO89_WET_JB2/source/alps/mediatek/preloader/out/mt_emi.o
                0x1200b020                mt_set_emi

.text.i2c_v1_set_speed
                0x1200bbc4        0x8
 .text.i2c_v1_set_speed
                0xffffffffffffffff        0x8 /alps/mprelease/MPload/ALPS.JB2.MP.V1.3_VANZO89_WET_JB2/source/alps/mediatek/preloader/out/mt_i2c.o
                0x1200bbc4                i2c_v1_set_speed

.text.i2c_v1_init
                0x1200bbcc        0x8
 .text.i2c_v1_init
                0xffffffffffffffff        0x8 /alps/mprelease/MPload/ALPS.JB2.MP.V1.3_VANZO89_WET_JB2/source/alps/mediatek/preloader/out/mt_i2c.o
                0x1200bbcc                i2c_v1_init

.text.i2c_v1_read
                0x1200bbd4        0x8
 .text.i2c_v1_read
                0xffffffffffffffff        0x8 /alps/mprelease/MPload/ALPS.JB2.MP.V1.3_VANZO89_WET_JB2/source/alps/mediatek/preloader/out/mt_i2c.o
                0x1200bbd4                i2c_v1_read

.text.i2c_v1_write
                0x1200bbdc        0x8
 .text.i2c_v1_write
                0xffffffffffffffff        0x8 /alps/mprelease/MPload/ALPS.JB2.MP.V1.3_VANZO89_WET_JB2/source/alps/mediatek/preloader/out/mt_i2c.o
                0x1200bbdc                i2c_v1_write

.text.mtk_kpd_gpios_get
                0x1200bbe4       0x2c
 .text.mtk_kpd_gpios_get
                0xffffffffffffffff       0x2c /alps/mprelease/MPload/ALPS.JB2.MP.V1.3_VANZO89_WET_JB2/source/alps/mediatek/preloader/out/mtk_key.o
                0x1200bbe4                mtk_kpd_gpios_get

.text.mtk_kpd_gpio_set
                0x1200bc10       0xa8
 .text.mtk_kpd_gpio_set
                0xffffffffffffffff       0xa8 /alps/mprelease/MPload/ALPS.JB2.MP.V1.3_VANZO89_WET_JB2/source/alps/mediatek/preloader/out/mtk_key.o
                0x1200bc10                mtk_kpd_gpio_set

.text.set_kpd_pmic_mode
                0x1200bcb8       0xac
 .text.set_kpd_pmic_mode
                0xffffffffffffffff       0xac /alps/mprelease/MPload/ALPS.JB2.MP.V1.3_VANZO89_WET_JB2/source/alps/mediatek/preloader/out/mtk_key.o
                0x1200bcb8                set_kpd_pmic_mode

.text.enable_PMIC_kpd_clock
                0x1200bd64       0x34
 .text.enable_PMIC_kpd_clock
                0xffffffffffffffff       0x34 /alps/mprelease/MPload/ALPS.JB2.MP.V1.3_VANZO89_WET_JB2/source/alps/mediatek/preloader/out/mtk_key.o
                0x1200bd64                enable_PMIC_kpd_clock

.text.mtk_detect_key
                0x1200bd98       0x98
 .text.mtk_detect_key
                0xffffffffffffffff       0x98 /alps/mprelease/MPload/ALPS.JB2.MP.V1.3_VANZO89_WET_JB2/source/alps/mediatek/preloader/out/mtk_key.o
                0x1200bd98                mtk_detect_key

.text.mtk_detect_dl_keys
                0x1200be30       0x4c
 .text.mtk_detect_dl_keys
                0xffffffffffffffff       0x4c /alps/mprelease/MPload/ALPS.JB2.MP.V1.3_VANZO89_WET_JB2/source/alps/mediatek/preloader/out/mtk_key.o
                0x1200be30                mtk_detect_dl_keys

.text.mt_mempll_init
                0x1200be7c      0x374
 .text.mt_mempll_init
                0xffffffffffffffff      0x374 /alps/mprelease/MPload/ALPS.JB2.MP.V1.3_VANZO89_WET_JB2/source/alps/mediatek/preloader/out/mtk_pll.o
                0x1200be7c                mt_mempll_init

.text.mt_mempll_cali
                0x1200c1f0      0x208
 .text.mt_mempll_cali
                0xffffffffffffffff      0x208 /alps/mprelease/MPload/ALPS.JB2.MP.V1.3_VANZO89_WET_JB2/source/alps/mediatek/preloader/out/mtk_pll.o
                0x1200c1f0                mt_mempll_cali

.text.mt_pll_post_init
                0x1200c3f8       0x2c
 .text.mt_pll_post_init
                0xffffffffffffffff       0x2c /alps/mprelease/MPload/ALPS.JB2.MP.V1.3_VANZO89_WET_JB2/source/alps/mediatek/preloader/out/mtk_pll.o
                0x1200c3f8                mt_pll_post_init

.text.mt_pll_init
                0x1200c424      0x20c
 .text.mt_pll_init
                0xffffffffffffffff      0x20c /alps/mprelease/MPload/ALPS.JB2.MP.V1.3_VANZO89_WET_JB2/source/alps/mediatek/preloader/out/mtk_pll.o
                0x1200c424                mt_pll_init

.text.pmic_read_interface
                0x1200c630       0x40
 .text.pmic_read_interface
                0xffffffffffffffff       0x40 /alps/mprelease/MPload/ALPS.JB2.MP.V1.3_VANZO89_WET_JB2/source/alps/mediatek/preloader/out/mtk_pmic_6320.o
                0x1200c630                pmic_read_interface

.text.pmic_config_interface
                0x1200c670       0x50
 .text.pmic_config_interface
                0xffffffffffffffff       0x50 /alps/mprelease/MPload/ALPS.JB2.MP.V1.3_VANZO89_WET_JB2/source/alps/mediatek/preloader/out/mtk_pmic_6320.o
                0x1200c670                pmic_config_interface

.text.hw_charger_type_detection
                0x1200c6c0      0x3ec
 .text.hw_charger_type_detection
                0xffffffffffffffff      0x3ec /alps/mprelease/MPload/ALPS.JB2.MP.V1.3_VANZO89_WET_JB2/source/alps/mediatek/preloader/out/mtk_pmic_6320.o
                0x1200c6c0                hw_charger_type_detection

.text.mt_charger_type_detection
                0x1200caac       0x64
 .text.mt_charger_type_detection
                0xffffffffffffffff       0x64 /alps/mprelease/MPload/ALPS.JB2.MP.V1.3_VANZO89_WET_JB2/source/alps/mediatek/preloader/out/mtk_pmic_6320.o
                0x1200caac                mt_charger_type_detection

.text.pmic_IsUsbCableIn
                0x1200cb10       0x38
 .text.pmic_IsUsbCableIn
                0xffffffffffffffff       0x38 /alps/mprelease/MPload/ALPS.JB2.MP.V1.3_VANZO89_WET_JB2/source/alps/mediatek/preloader/out/mtk_pmic_6320.o
                0x1200cb10                pmic_IsUsbCableIn

.text.pmic_detect_powerkey
                0x1200cb48       0x5c
 .text.pmic_detect_powerkey
                0xffffffffffffffff       0x5c /alps/mprelease/MPload/ALPS.JB2.MP.V1.3_VANZO89_WET_JB2/source/alps/mediatek/preloader/out/mtk_pmic_6320.o
                0x1200cb48                pmic_detect_powerkey

.text.hw_set_cc
                0x1200cba4      0x390
 .text.hw_set_cc
                0xffffffffffffffff      0x390 /alps/mprelease/MPload/ALPS.JB2.MP.V1.3_VANZO89_WET_JB2/source/alps/mediatek/preloader/out/mtk_pmic_6320.o
                0x1200cba4                hw_set_cc

.text.pl_hw_ulc_det
                0x1200cf34       0x30
 .text.pl_hw_ulc_det
                0xffffffffffffffff       0x30 /alps/mprelease/MPload/ALPS.JB2.MP.V1.3_VANZO89_WET_JB2/source/alps/mediatek/preloader/out/mtk_pmic_6320.o
                0x1200cf34                pl_hw_ulc_det

.text.hw_check_battery
                0x1200cf64      0x184
 .text.hw_check_battery
                0xffffffffffffffff      0x184 /alps/mprelease/MPload/ALPS.JB2.MP.V1.3_VANZO89_WET_JB2/source/alps/mediatek/preloader/out/mtk_pmic_6320.o
                0x1200cf64                hw_check_battery

.text.pl_charging
                0x1200d0e8       0xe4
 .text.pl_charging
                0xffffffffffffffff       0xe4 /alps/mprelease/MPload/ALPS.JB2.MP.V1.3_VANZO89_WET_JB2/source/alps/mediatek/preloader/out/mtk_pmic_6320.o
                0x1200d0e8                pl_charging

.text.pl_kick_chr_wdt
                0x1200d1cc       0x58
 .text.pl_kick_chr_wdt
                0xffffffffffffffff       0x58 /alps/mprelease/MPload/ALPS.JB2.MP.V1.3_VANZO89_WET_JB2/source/alps/mediatek/preloader/out/mtk_pmic_6320.o
                0x1200d1cc                pl_kick_chr_wdt

.text.pl_close_pre_chr_led
                0x1200d224       0x2c
 .text.pl_close_pre_chr_led
                0xffffffffffffffff       0x2c /alps/mprelease/MPload/ALPS.JB2.MP.V1.3_VANZO89_WET_JB2/source/alps/mediatek/preloader/out/mtk_pmic_6320.o
                0x1200d224                pl_close_pre_chr_led

.text.pmic_efuse_trimming
                0x1200d250      0x304
 .text.pmic_efuse_trimming
                0xffffffffffffffff      0x304 /alps/mprelease/MPload/ALPS.JB2.MP.V1.3_VANZO89_WET_JB2/source/alps/mediatek/preloader/out/mtk_pmic_6320.o
                0x1200d250                pmic_efuse_trimming

.text.pmic_vm_tunning
                0x1200d554       0xbc
 .text.pmic_vm_tunning
                0xffffffffffffffff       0xbc /alps/mprelease/MPload/ALPS.JB2.MP.V1.3_VANZO89_WET_JB2/source/alps/mediatek/preloader/out/mtk_pmic_6320.o
                0x1200d554                pmic_vm_tunning

.text.pmic6320_init
                0x1200d610       0x88
 .text.pmic6320_init
                0xffffffffffffffff       0x88 /alps/mprelease/MPload/ALPS.JB2.MP.V1.3_VANZO89_WET_JB2/source/alps/mediatek/preloader/out/mtk_pmic_6320.o
                0x1200d610                pmic6320_init

.text.get_timer_masked
                0x1200d698       0xb0
 .text.get_timer_masked
                0xffffffffffffffff       0xb0 /alps/mprelease/MPload/ALPS.JB2.MP.V1.3_VANZO89_WET_JB2/source/alps/mediatek/preloader/out/mtk_timer.o

.text.gpt4_get_current_tick
                0x1200d748       0x10
 .text.gpt4_get_current_tick
                0xffffffffffffffff       0x10 /alps/mprelease/MPload/ALPS.JB2.MP.V1.3_VANZO89_WET_JB2/source/alps/mediatek/preloader/out/mtk_timer.o
                0x1200d748                gpt4_get_current_tick

.text.gpt4_timeout_tick
                0x1200d758       0x30
 .text.gpt4_timeout_tick
                0xffffffffffffffff       0x30 /alps/mprelease/MPload/ALPS.JB2.MP.V1.3_VANZO89_WET_JB2/source/alps/mediatek/preloader/out/mtk_timer.o
                0x1200d758                gpt4_timeout_tick

.text.gpt4_time2tick_us
                0x1200d788       0x1c
 .text.gpt4_time2tick_us
                0xffffffffffffffff       0x1c /alps/mprelease/MPload/ALPS.JB2.MP.V1.3_VANZO89_WET_JB2/source/alps/mediatek/preloader/out/mtk_timer.o
                0x1200d788                gpt4_time2tick_us

.text.gpt_busy_wait_us
                0x1200d7a4       0x2c
 .text.gpt_busy_wait_us
                0xffffffffffffffff       0x2c /alps/mprelease/MPload/ALPS.JB2.MP.V1.3_VANZO89_WET_JB2/source/alps/mediatek/preloader/out/mtk_timer.o
                0x1200d7a4                gpt_busy_wait_us

.text.gpt_busy_wait_ms
                0x1200d7d0       0x5c
 .text.gpt_busy_wait_ms
                0xffffffffffffffff       0x5c /alps/mprelease/MPload/ALPS.JB2.MP.V1.3_VANZO89_WET_JB2/source/alps/mediatek/preloader/out/mtk_timer.o
                0x1200d7d0                gpt_busy_wait_ms

.text.get_timer
                0x1200d82c       0x20
 .text.get_timer
                0xffffffffffffffff       0x20 /alps/mprelease/MPload/ALPS.JB2.MP.V1.3_VANZO89_WET_JB2/source/alps/mediatek/preloader/out/mtk_timer.o
                0x1200d82c                get_timer

.text.mdelay    0x1200d84c       0x28
 .text.mdelay   0xffffffffffffffff       0x28 /alps/mprelease/MPload/ALPS.JB2.MP.V1.3_VANZO89_WET_JB2/source/alps/mediatek/preloader/out/mtk_timer.o
                0x1200d84c                mdelay

.text.udelay    0x1200d874       0x94
 .text.udelay   0xffffffffffffffff       0x94 /alps/mprelease/MPload/ALPS.JB2.MP.V1.3_VANZO89_WET_JB2/source/alps/mediatek/preloader/out/mtk_timer.o
                0x1200d874                udelay

.text.mtk_timer_init
                0x1200d908       0x74
 .text.mtk_timer_init
                0xffffffffffffffff       0x74 /alps/mprelease/MPload/ALPS.JB2.MP.V1.3_VANZO89_WET_JB2/source/alps/mediatek/preloader/out/mtk_timer.o
                0x1200d908                mtk_timer_init

.text.mtk_wdt_mode_config.constprop.1
                0x1200d97c       0x48
 .text.mtk_wdt_mode_config.constprop.1
                0xffffffffffffffff       0x48 /alps/mprelease/MPload/ALPS.JB2.MP.V1.3_VANZO89_WET_JB2/source/alps/mediatek/preloader/out/mtk_wdt.o

.text.mtk_wdt_restart
                0x1200d9c4       0x10
 .text.mtk_wdt_restart
                0xffffffffffffffff       0x10 /alps/mprelease/MPload/ALPS.JB2.MP.V1.3_VANZO89_WET_JB2/source/alps/mediatek/preloader/out/mtk_wdt.o
                0x1200d9c4                mtk_wdt_restart

.text.mtk_wdt_boot_check
                0x1200d9d4       0x7c
 .text.mtk_wdt_boot_check
                0xffffffffffffffff       0x7c /alps/mprelease/MPload/ALPS.JB2.MP.V1.3_VANZO89_WET_JB2/source/alps/mediatek/preloader/out/mtk_wdt.o
                0x1200d9d4                mtk_wdt_boot_check

.text.mtk_wdt_init
                0x1200da50      0x2e8
 .text.mtk_wdt_init
                0xffffffffffffffff      0x2e8 /alps/mprelease/MPload/ALPS.JB2.MP.V1.3_VANZO89_WET_JB2/source/alps/mediatek/preloader/out/mtk_wdt.o
                0x1200da50                mtk_wdt_init

.text.mtk_arch_reset
                0x1200dd38       0x54
 .text.mtk_arch_reset
                0xffffffffffffffff       0x54 /alps/mprelease/MPload/ALPS.JB2.MP.V1.3_VANZO89_WET_JB2/source/alps/mediatek/preloader/out/mtk_wdt.o
                0x1200dd38                mtk_arch_reset

.text.complex_mem_test
                0x1200dd8c      0x640
 .text.complex_mem_test
                0xffffffffffffffff      0x640 /alps/mprelease/MPload/ALPS.JB2.MP.V1.3_VANZO89_WET_JB2/source/alps/mediatek/preloader/out/mt_memory.o
                0x1200dd8c                complex_mem_test

.text.mt_mem_init
                0x1200e3cc       0x7c
 .text.mt_mem_init
                0xffffffffffffffff       0x7c /alps/mprelease/MPload/ALPS.JB2.MP.V1.3_VANZO89_WET_JB2/source/alps/mediatek/preloader/out/mt_memory.o
                0x1200e3cc                mt_mem_init

.text.wait_for_fsm_vldclr
                0x1200e448       0x10
 .text.wait_for_fsm_vldclr
                0xffffffffffffffff       0x10 /alps/mprelease/MPload/ALPS.JB2.MP.V1.3_VANZO89_WET_JB2/source/alps/mediatek/preloader/out/mt_pmic_wrap_init.o

.text.wait_for_sync
                0x1200e458       0x10
 .text.wait_for_sync
                0xffffffffffffffff       0x10 /alps/mprelease/MPload/ALPS.JB2.MP.V1.3_VANZO89_WET_JB2/source/alps/mediatek/preloader/out/mt_pmic_wrap_init.o

.text.wait_for_idle_and_sync
                0x1200e468       0x20
 .text.wait_for_idle_and_sync
                0xffffffffffffffff       0x20 /alps/mprelease/MPload/ALPS.JB2.MP.V1.3_VANZO89_WET_JB2/source/alps/mediatek/preloader/out/mt_pmic_wrap_init.o

.text.wait_for_cipher_ready
                0x1200e488        0xc
 .text.wait_for_cipher_ready
                0xffffffffffffffff        0xc /alps/mprelease/MPload/ALPS.JB2.MP.V1.3_VANZO89_WET_JB2/source/alps/mediatek/preloader/out/mt_pmic_wrap_init.o

.text.wait_for_state_ready_init.constprop.3
                0x1200e494       0x78
 .text.wait_for_state_ready_init.constprop.3
                0xffffffffffffffff       0x78 /alps/mprelease/MPload/ALPS.JB2.MP.V1.3_VANZO89_WET_JB2/source/alps/mediatek/preloader/out/mt_pmic_wrap_init.o

.text.pwrap_dump_ap_register
                0x1200e50c       0x8c
 .text.pwrap_dump_ap_register
                0xffffffffffffffff       0x8c /alps/mprelease/MPload/ALPS.JB2.MP.V1.3_VANZO89_WET_JB2/source/alps/mediatek/preloader/out/mt_pmic_wrap_init.o
                0x1200e50c                pwrap_dump_ap_register

.text._pwrap_wacs2_nochk
                0x1200e598      0x200
 .text._pwrap_wacs2_nochk
                0xffffffffffffffff      0x200 /alps/mprelease/MPload/ALPS.JB2.MP.V1.3_VANZO89_WET_JB2/source/alps/mediatek/preloader/out/mt_pmic_wrap_init.o

.text.pwrap_read_nochk
                0x1200e798       0x18
 .text.pwrap_read_nochk
                0xffffffffffffffff       0x18 /alps/mprelease/MPload/ALPS.JB2.MP.V1.3_VANZO89_WET_JB2/source/alps/mediatek/preloader/out/mt_pmic_wrap_init.o

.text.pwrap_write_nochk
                0x1200e7b0       0x18
 .text.pwrap_write_nochk
                0xffffffffffffffff       0x18 /alps/mprelease/MPload/ALPS.JB2.MP.V1.3_VANZO89_WET_JB2/source/alps/mediatek/preloader/out/mt_pmic_wrap_init.o

.text.pwrap_init
                0x1200e7c8      0x908
 .text.pwrap_init
                0xffffffffffffffff      0x908 /alps/mprelease/MPload/ALPS.JB2.MP.V1.3_VANZO89_WET_JB2/source/alps/mediatek/preloader/out/mt_pmic_wrap_init.o
                0x1200e7c8                pwrap_init

.text.pwrap_wacs2
                0x1200f0d0      0x274
 .text.pwrap_wacs2
                0xffffffffffffffff      0x274 /alps/mprelease/MPload/ALPS.JB2.MP.V1.3_VANZO89_WET_JB2/source/alps/mediatek/preloader/out/mt_pmic_wrap_init.o
                0x1200f0d0                pwrap_wacs2

.text.pwrap_write
                0x1200f344       0x18
 .text.pwrap_write
                0xffffffffffffffff       0x18 /alps/mprelease/MPload/ALPS.JB2.MP.V1.3_VANZO89_WET_JB2/source/alps/mediatek/preloader/out/mt_pmic_wrap_init.o
                0x1200f344                pwrap_write

.text.pwrap_read
                0x1200f35c       0x18
 .text.pwrap_read
                0xffffffffffffffff       0x18 /alps/mprelease/MPload/ALPS.JB2.MP.V1.3_VANZO89_WET_JB2/source/alps/mediatek/preloader/out/mt_pmic_wrap_init.o
                0x1200f35c                pwrap_read

.text.pwrap_init_preloader
                0x1200f374       0x68
 .text.pwrap_init_preloader
                0xffffffffffffffff       0x68 /alps/mprelease/MPload/ALPS.JB2.MP.V1.3_VANZO89_WET_JB2/source/alps/mediatek/preloader/out/mt_pmic_wrap_init.o
                0x1200f374                pwrap_init_preloader

.text.rtc_mktime
                0x1200f3dc       0xa4
 .text.rtc_mktime
                0xffffffffffffffff       0xa4 /alps/mprelease/MPload/ALPS.JB2.MP.V1.3_VANZO89_WET_JB2/source/alps/mediatek/preloader/out/mt_rtc.o

.text.RTC_Write
                0x1200f480        0x4
 .text.RTC_Write
                0xffffffffffffffff        0x4 /alps/mprelease/MPload/ALPS.JB2.MP.V1.3_VANZO89_WET_JB2/source/alps/mediatek/preloader/out/mt_rtc.o

.text.RTC_Read  0x1200f484       0x1c
 .text.RTC_Read
                0xffffffffffffffff       0x1c /alps/mprelease/MPload/ALPS.JB2.MP.V1.3_VANZO89_WET_JB2/source/alps/mediatek/preloader/out/mt_rtc.o

.text.Write_trigger
                0x1200f4a0       0x24
 .text.Write_trigger
                0xffffffffffffffff       0x24 /alps/mprelease/MPload/ALPS.JB2.MP.V1.3_VANZO89_WET_JB2/source/alps/mediatek/preloader/out/mt_rtc.o

.text.rtc_xosc_write
                0x1200f4c4       0x8c
 .text.rtc_xosc_write
                0xffffffffffffffff       0x8c /alps/mprelease/MPload/ALPS.JB2.MP.V1.3_VANZO89_WET_JB2/source/alps/mediatek/preloader/out/mt_rtc.o

.text.get_frequency_meter
                0x1200f550       0xa0
 .text.get_frequency_meter
                0xffffffffffffffff       0xa0 /alps/mprelease/MPload/ALPS.JB2.MP.V1.3_VANZO89_WET_JB2/source/alps/mediatek/preloader/out/mt_rtc.o

.text.eosc_cali
                0x1200f5f0       0xcc
 .text.eosc_cali
                0xffffffffffffffff       0xcc /alps/mprelease/MPload/ALPS.JB2.MP.V1.3_VANZO89_WET_JB2/source/alps/mediatek/preloader/out/mt_rtc.o

.text.rtc_bbpu_power_on
                0x1200f6bc       0x28
 .text.rtc_bbpu_power_on
                0xffffffffffffffff       0x28 /alps/mprelease/MPload/ALPS.JB2.MP.V1.3_VANZO89_WET_JB2/source/alps/mediatek/preloader/out/mt_rtc.o
                0x1200f6bc                rtc_bbpu_power_on

.text.rtc_mark_bypass_pwrkey
                0x1200f6e4       0x28
 .text.rtc_mark_bypass_pwrkey
                0xffffffffffffffff       0x28 /alps/mprelease/MPload/ALPS.JB2.MP.V1.3_VANZO89_WET_JB2/source/alps/mediatek/preloader/out/mt_rtc.o
                0x1200f6e4                rtc_mark_bypass_pwrkey

.text.rtc_boot_check
                0x1200f70c      0x918
 .text.rtc_boot_check
                0xffffffffffffffff      0x918 /alps/mprelease/MPload/ALPS.JB2.MP.V1.3_VANZO89_WET_JB2/source/alps/mediatek/preloader/out/mt_rtc.o
                0x1200f70c                rtc_boot_check

.text.pl_power_off
                0x12010024       0x48
 .text.pl_power_off
                0xffffffffffffffff       0x48 /alps/mprelease/MPload/ALPS.JB2.MP.V1.3_VANZO89_WET_JB2/source/alps/mediatek/preloader/out/mt_rtc.o
                0x12010024                pl_power_off

.text.mt_read_fifo
                0x1201006c       0xe8
 .text.mt_read_fifo
                0xffffffffffffffff       0xe8 /alps/mprelease/MPload/ALPS.JB2.MP.V1.3_VANZO89_WET_JB2/source/alps/mediatek/preloader/out/mt_usbd.o

.text.mt_find_ep
                0x12010154       0x60
 .text.mt_find_ep
                0xffffffffffffffff       0x60 /alps/mprelease/MPload/ALPS.JB2.MP.V1.3_VANZO89_WET_JB2/source/alps/mediatek/preloader/out/mt_usbd.o

.text.mt_udc_flush_fifo
                0x120101b4       0x60
 .text.mt_udc_flush_fifo
                0xffffffffffffffff       0x60 /alps/mprelease/MPload/ALPS.JB2.MP.V1.3_VANZO89_WET_JB2/source/alps/mediatek/preloader/out/mt_usbd.o

.text.mt_write_fifo
                0x12010214       0xcc
 .text.mt_write_fifo
                0xffffffffffffffff       0xcc /alps/mprelease/MPload/ALPS.JB2.MP.V1.3_VANZO89_WET_JB2/source/alps/mediatek/preloader/out/mt_usbd.o

.text.mt_udc_ep0_write
                0x120102e0       0x7c
 .text.mt_udc_ep0_write
                0xffffffffffffffff       0x7c /alps/mprelease/MPload/ALPS.JB2.MP.V1.3_VANZO89_WET_JB2/source/alps/mediatek/preloader/out/mt_usbd.o

.text.mt_udc_epx_handler
                0x1201035c       0xac
 .text.mt_udc_epx_handler
                0xffffffffffffffff       0xac /alps/mprelease/MPload/ALPS.JB2.MP.V1.3_VANZO89_WET_JB2/source/alps/mediatek/preloader/out/mt_usbd.o

.text.mt_udc_reset
                0x12010408       0xec
 .text.mt_udc_reset
                0xffffffffffffffff       0xec /alps/mprelease/MPload/ALPS.JB2.MP.V1.3_VANZO89_WET_JB2/source/alps/mediatek/preloader/out/mt_usbd.o

.text.copy_desc
                0x120104f4       0x50
 .text.copy_desc
                0xffffffffffffffff       0x50 /alps/mprelease/MPload/ALPS.JB2.MP.V1.3_VANZO89_WET_JB2/source/alps/mediatek/preloader/out/mt_usbd.o

.text.mt_udc_irq
                0x12010544      0x7e0
 .text.mt_udc_irq
                0xffffffffffffffff      0x7e0 /alps/mprelease/MPload/ALPS.JB2.MP.V1.3_VANZO89_WET_JB2/source/alps/mediatek/preloader/out/mt_usbd.o
                0x12010544                mt_udc_irq

.text.mt_ep_write
                0x12010d24       0x54
 .text.mt_ep_write
                0xffffffffffffffff       0x54 /alps/mprelease/MPload/ALPS.JB2.MP.V1.3_VANZO89_WET_JB2/source/alps/mediatek/preloader/out/mt_usbd.o
                0x12010d24                mt_ep_write

.text.mt_ep_busy
                0x12010d78       0x30
 .text.mt_ep_busy
                0xffffffffffffffff       0x30 /alps/mprelease/MPload/ALPS.JB2.MP.V1.3_VANZO89_WET_JB2/source/alps/mediatek/preloader/out/mt_usbd.o
                0x12010d78                mt_ep_busy

.text.mt_setup_ep
                0x12010da8      0x218
 .text.mt_setup_ep
                0xffffffffffffffff      0x218 /alps/mprelease/MPload/ALPS.JB2.MP.V1.3_VANZO89_WET_JB2/source/alps/mediatek/preloader/out/mt_usbd.o
                0x12010da8                mt_setup_ep

.text.mt_usb_connect_internal
                0x12010fc0       0x18
 .text.mt_usb_connect_internal
                0xffffffffffffffff       0x18 /alps/mprelease/MPload/ALPS.JB2.MP.V1.3_VANZO89_WET_JB2/source/alps/mediatek/preloader/out/mt_usbd.o
                0x12010fc0                mt_usb_connect_internal

.text.mt_usb_disconnect_internal
                0x12010fd8       0x18
 .text.mt_usb_disconnect_internal
                0xffffffffffffffff       0x18 /alps/mprelease/MPload/ALPS.JB2.MP.V1.3_VANZO89_WET_JB2/source/alps/mediatek/preloader/out/mt_usbd.o
                0x12010fd8                mt_usb_disconnect_internal

.text.udc_enable
                0x12010ff0       0x58
 .text.udc_enable
                0xffffffffffffffff       0x58 /alps/mprelease/MPload/ALPS.JB2.MP.V1.3_VANZO89_WET_JB2/source/alps/mediatek/preloader/out/mt_usbd.o
                0x12010ff0                udc_enable

.text.usb_service_offline
                0x12011048       0x10
 .text.usb_service_offline
                0xffffffffffffffff       0x10 /alps/mprelease/MPload/ALPS.JB2.MP.V1.3_VANZO89_WET_JB2/source/alps/mediatek/preloader/out/mt_usbd.o
                0x12011048                usb_service_offline

.text.mt_usb_phy_calibraion
                0x12011058      0x1f4
 .text.mt_usb_phy_calibraion
                0xffffffffffffffff      0x1f4 /alps/mprelease/MPload/ALPS.JB2.MP.V1.3_VANZO89_WET_JB2/source/alps/mediatek/preloader/out/mt_usbphy.o
                0x12011058                mt_usb_phy_calibraion

.text.mt_usb_phy_poweron
                0x1201124c       0x40
 .text.mt_usb_phy_poweron
                0xffffffffffffffff       0x40 /alps/mprelease/MPload/ALPS.JB2.MP.V1.3_VANZO89_WET_JB2/source/alps/mediatek/preloader/out/mt_usbphy.o
                0x1201124c                mt_usb_phy_poweron

.text.mt_usb_phy_savecurrent
                0x1201128c       0xc4
 .text.mt_usb_phy_savecurrent
                0xffffffffffffffff       0xc4 /alps/mprelease/MPload/ALPS.JB2.MP.V1.3_VANZO89_WET_JB2/source/alps/mediatek/preloader/out/mt_usbphy.o
                0x1201128c                mt_usb_phy_savecurrent

.text.mt_usb_phy_recover
                0x12011350       0x7c
 .text.mt_usb_phy_recover
                0xffffffffffffffff       0x7c /alps/mprelease/MPload/ALPS.JB2.MP.V1.3_VANZO89_WET_JB2/source/alps/mediatek/preloader/out/mt_usbphy.o
                0x12011350                mt_usb_phy_recover

.text.mt_usb_calibraion
                0x120113cc       0xa4
 .text.mt_usb_calibraion
                0xffffffffffffffff       0xa4 /alps/mprelease/MPload/ALPS.JB2.MP.V1.3_VANZO89_WET_JB2/source/alps/mediatek/preloader/out/mt_usbphy.o
                0x120113cc                mt_usb_calibraion

.text.mt_usb11_phy_savecurrent
                0x12011470       0xe8
 .text.mt_usb11_phy_savecurrent
                0xffffffffffffffff       0xe8 /alps/mprelease/MPload/ALPS.JB2.MP.V1.3_VANZO89_WET_JB2/source/alps/mediatek/preloader/out/mt_usbphy.o
                0x12011470                mt_usb11_phy_savecurrent

.text.str2wide  0x12011558       0x3c
 .text.str2wide
                0xffffffffffffffff       0x3c /alps/mprelease/MPload/ALPS.JB2.MP.V1.3_VANZO89_WET_JB2/source/alps/mediatek/preloader/out/mt_usbtty.o

.text.ep_to_buf.constprop.0
                0x12011594       0x4c
 .text.ep_to_buf.constprop.0
                0xffffffffffffffff       0x4c /alps/mprelease/MPload/ALPS.JB2.MP.V1.3_VANZO89_WET_JB2/source/alps/mediatek/preloader/out/mt_usbtty.o

.text.usb_alloc_urb
                0x120115e0       0x78
 .text.usb_alloc_urb
                0xffffffffffffffff       0x78 /alps/mprelease/MPload/ALPS.JB2.MP.V1.3_VANZO89_WET_JB2/source/alps/mediatek/preloader/out/mt_usbtty.o
                0x120115e0                usb_alloc_urb

.text.usbdl_init
                0x12011658      0x454
 .text.usbdl_init
                0xffffffffffffffff      0x454 /alps/mprelease/MPload/ALPS.JB2.MP.V1.3_VANZO89_WET_JB2/source/alps/mediatek/preloader/out/mt_usbtty.o
                0x12011658                usbdl_init

.text.tool_is_present
                0x12011aac       0x14
 .text.tool_is_present
                0xffffffffffffffff       0x14 /alps/mprelease/MPload/ALPS.JB2.MP.V1.3_VANZO89_WET_JB2/source/alps/mediatek/preloader/out/mt_usbtty.o
                0x12011aac                tool_is_present

.text.tool_state_update
                0x12011ac0       0x14
 .text.tool_state_update
                0xffffffffffffffff       0x14 /alps/mprelease/MPload/ALPS.JB2.MP.V1.3_VANZO89_WET_JB2/source/alps/mediatek/preloader/out/mt_usbtty.o
                0x12011ac0                tool_state_update

.text.usbdl_configured
                0x12011ad4       0x14
 .text.usbdl_configured
                0xffffffffffffffff       0x14 /alps/mprelease/MPload/ALPS.JB2.MP.V1.3_VANZO89_WET_JB2/source/alps/mediatek/preloader/out/mt_usbtty.o
                0x12011ad4                usbdl_configured

.text.enable_highspeed
                0x12011ae8       0xbc
 .text.enable_highspeed
                0xffffffffffffffff       0xbc /alps/mprelease/MPload/ALPS.JB2.MP.V1.3_VANZO89_WET_JB2/source/alps/mediatek/preloader/out/mt_usbtty.o
                0x12011ae8                enable_highspeed

.text.config_usbtty
                0x12011ba4       0x6c
 .text.config_usbtty
                0xffffffffffffffff       0x6c /alps/mprelease/MPload/ALPS.JB2.MP.V1.3_VANZO89_WET_JB2/source/alps/mediatek/preloader/out/mt_usbtty.o
                0x12011ba4                config_usbtty

.text.service_interrupts
                0x12011c10       0x7c
 .text.service_interrupts
                0xffffffffffffffff       0x7c /alps/mprelease/MPload/ALPS.JB2.MP.V1.3_VANZO89_WET_JB2/source/alps/mediatek/preloader/out/mt_usbtty.o
                0x12011c10                service_interrupts

.text.usbdl_poll
                0x12011c8c       0xd4
 .text.usbdl_poll
                0xffffffffffffffff       0xd4 /alps/mprelease/MPload/ALPS.JB2.MP.V1.3_VANZO89_WET_JB2/source/alps/mediatek/preloader/out/mt_usbtty.o
                0x12011c8c                usbdl_poll

.text.usbdl_flush
                0x12011d60       0x78
 .text.usbdl_flush
                0xffffffffffffffff       0x78 /alps/mprelease/MPload/ALPS.JB2.MP.V1.3_VANZO89_WET_JB2/source/alps/mediatek/preloader/out/mt_usbtty.o
                0x12011d60                usbdl_flush

.text.mt_usbtty_flush
                0x12011dd8        0x4
 .text.mt_usbtty_flush
                0xffffffffffffffff        0x4 /alps/mprelease/MPload/ALPS.JB2.MP.V1.3_VANZO89_WET_JB2/source/alps/mediatek/preloader/out/mt_usbtty.o
                0x12011dd8                mt_usbtty_flush

.text.mt_usbtty_getcn
                0x12011ddc       0x80
 .text.mt_usbtty_getcn
                0xffffffffffffffff       0x80 /alps/mprelease/MPload/ALPS.JB2.MP.V1.3_VANZO89_WET_JB2/source/alps/mediatek/preloader/out/mt_usbtty.o
                0x12011ddc                mt_usbtty_getcn

.text.mt_usbtty_putcn
                0x12011e5c       0xa4
 .text.mt_usbtty_putcn
                0xffffffffffffffff       0xa4 /alps/mprelease/MPload/ALPS.JB2.MP.V1.3_VANZO89_WET_JB2/source/alps/mediatek/preloader/out/mt_usbtty.o
                0x12011e5c                mt_usbtty_putcn

.text.mt_usbtty_puts
                0x12011f00       0x78
 .text.mt_usbtty_puts
                0xffffffffffffffff       0x78 /alps/mprelease/MPload/ALPS.JB2.MP.V1.3_VANZO89_WET_JB2/source/alps/mediatek/preloader/out/mt_usbtty.o
                0x12011f00                mt_usbtty_puts

.text.mt_usbtty_query_data_size
                0x12011f78       0x3c
 .text.mt_usbtty_query_data_size
                0xffffffffffffffff       0x3c /alps/mprelease/MPload/ALPS.JB2.MP.V1.3_VANZO89_WET_JB2/source/alps/mediatek/preloader/out/mt_usbtty.o
                0x12011f78                mt_usbtty_query_data_size

.text.get_part_tab_from_complier
                0x12011fb4       0xbc
 .text.get_part_tab_from_complier
                0xffffffffffffffff       0xbc /alps/mprelease/MPload/ALPS.JB2.MP.V1.3_VANZO89_WET_JB2/source/alps/mediatek/preloader/out/partition_mt.o
                0x12011fb4                get_part_tab_from_complier

.text.pmt_get_part
                0x12012070       0xc0
 .text.pmt_get_part
                0xffffffffffffffff       0xc0 /alps/mprelease/MPload/ALPS.JB2.MP.V1.3_VANZO89_WET_JB2/source/alps/mediatek/preloader/out/partition_mt.o
                0x12012070                pmt_get_part

.text.load_exist_part_tab
                0x12012130      0x700
 .text.load_exist_part_tab
                0xffffffffffffffff      0x700 /alps/mprelease/MPload/ALPS.JB2.MP.V1.3_VANZO89_WET_JB2/source/alps/mediatek/preloader/out/partition_mt.o
                0x12012130                load_exist_part_tab

.text.pmt_init  0x12012830      0x508
 .text.pmt_init
                0xffffffffffffffff      0x508 /alps/mprelease/MPload/ALPS.JB2.MP.V1.3_VANZO89_WET_JB2/source/alps/mediatek/preloader/out/partition_mt.o
                0x12012830                pmt_init

.text.part_init
                0x12012d38       0xcc
 .text.part_init
                0xffffffffffffffff       0xcc /alps/mprelease/MPload/ALPS.JB2.MP.V1.3_VANZO89_WET_JB2/source/alps/mediatek/preloader/out/part.o
                0x12012d38                part_init

.text.part_get  0x12012e04       0x60
 .text.part_get
                0xffffffffffffffff       0x60 /alps/mprelease/MPload/ALPS.JB2.MP.V1.3_VANZO89_WET_JB2/source/alps/mediatek/preloader/out/part.o
                0x12012e04                part_get

.text.part_load
                0x12012e64      0x234
 .text.part_load
                0xffffffffffffffff      0x234 /alps/mprelease/MPload/ALPS.JB2.MP.V1.3_VANZO89_WET_JB2/source/alps/mediatek/preloader/out/part.o
                0x12012e64                part_load

.text.part_dump
                0x12013098       0xac
 .text.part_dump
                0xffffffffffffffff       0xac /alps/mprelease/MPload/ALPS.JB2.MP.V1.3_VANZO89_WET_JB2/source/alps/mediatek/preloader/out/part.o
                0x12013098                part_dump

.text.platform_set_chrg_cur
                0x12013144        0x4
 .text.platform_set_chrg_cur
                0xffffffffffffffff        0x4 /alps/mprelease/MPload/ALPS.JB2.MP.V1.3_VANZO89_WET_JB2/source/alps/mediatek/preloader/out/platform.o
                0x12013144                platform_set_chrg_cur

.text.usb_accessory_in
                0x12013148       0x2c
 .text.usb_accessory_in
                0xffffffffffffffff       0x2c /alps/mprelease/MPload/ALPS.JB2.MP.V1.3_VANZO89_WET_JB2/source/alps/mediatek/preloader/out/platform.o
                0x12013148                usb_accessory_in

.text.usb_cable_in
                0x12013174       0x80
 .text.usb_cable_in
                0xffffffffffffffff       0x80 /alps/mprelease/MPload/ALPS.JB2.MP.V1.3_VANZO89_WET_JB2/source/alps/mediatek/preloader/out/platform.o
                0x12013174                usb_cable_in

.text.platform_vusb_on
                0x120131f4       0x3c
 .text.platform_vusb_on
                0xffffffffffffffff       0x3c /alps/mprelease/MPload/ALPS.JB2.MP.V1.3_VANZO89_WET_JB2/source/alps/mediatek/preloader/out/platform.o
                0x120131f4                platform_vusb_on

.text.platform_set_boot_args
                0x12013230      0x168
 .text.platform_set_boot_args
                0xffffffffffffffff      0x168 /alps/mprelease/MPload/ALPS.JB2.MP.V1.3_VANZO89_WET_JB2/source/alps/mediatek/preloader/out/platform.o
                0x12013230                platform_set_boot_args

.text.platform_wdt_all_kick
                0x12013398       0x10
 .text.platform_wdt_all_kick
                0xffffffffffffffff       0x10 /alps/mprelease/MPload/ALPS.JB2.MP.V1.3_VANZO89_WET_JB2/source/alps/mediatek/preloader/out/platform.o
                0x12013398                platform_wdt_all_kick

.text.platform_wdt_kick
                0x120133a8        0x4
 .text.platform_wdt_kick
                0xffffffffffffffff        0x4 /alps/mprelease/MPload/ALPS.JB2.MP.V1.3_VANZO89_WET_JB2/source/alps/mediatek/preloader/out/platform.o
                0x120133a8                platform_wdt_kick

.text.platform_safe_mode
                0x120133ac       0x48
 .text.platform_safe_mode
                0xffffffffffffffff       0x48 /alps/mprelease/MPload/ALPS.JB2.MP.V1.3_VANZO89_WET_JB2/source/alps/mediatek/preloader/out/platform.o
                0x120133ac                platform_safe_mode

.text.platform_emergency_download
                0x120133f4       0x50
 .text.platform_emergency_download
                0xffffffffffffffff       0x50 /alps/mprelease/MPload/ALPS.JB2.MP.V1.3_VANZO89_WET_JB2/source/alps/mediatek/preloader/out/platform.o
                0x120133f4                platform_emergency_download

.text.platform_get_mcp_id
                0x12013444       0x30
 .text.platform_get_mcp_id
                0xffffffffffffffff       0x30 /alps/mprelease/MPload/ALPS.JB2.MP.V1.3_VANZO89_WET_JB2/source/alps/mediatek/preloader/out/platform.o
                0x12013444                platform_get_mcp_id

.text.platform_chip_ver
                0x12013474        0x8
 .text.platform_chip_ver
                0xffffffffffffffff        0x8 /alps/mprelease/MPload/ALPS.JB2.MP.V1.3_VANZO89_WET_JB2/source/alps/mediatek/preloader/out/platform.o
                0x12013474                platform_chip_ver

.text.platform_com_wait_forever_check
                0x1201347c        0x8
 .text.platform_com_wait_forever_check
                0xffffffffffffffff        0x8 /alps/mprelease/MPload/ALPS.JB2.MP.V1.3_VANZO89_WET_JB2/source/alps/mediatek/preloader/out/platform.o
                0x1201347c                platform_com_wait_forever_check

.text.platform_pre_init
                0x12013484      0x174
 .text.platform_pre_init
                0xffffffffffffffff      0x174 /alps/mprelease/MPload/ALPS.JB2.MP.V1.3_VANZO89_WET_JB2/source/alps/mediatek/preloader/out/platform.o
                0x12013484                platform_pre_init

.text.platform_init
                0x120135f8      0x218
 .text.platform_init
                0xffffffffffffffff      0x218 /alps/mprelease/MPload/ALPS.JB2.MP.V1.3_VANZO89_WET_JB2/source/alps/mediatek/preloader/out/platform.o
                0x120135f8                platform_init

.text.platform_post_init
                0x12013810      0x11c
 .text.platform_post_init
                0xffffffffffffffff      0x11c /alps/mprelease/MPload/ALPS.JB2.MP.V1.3_VANZO89_WET_JB2/source/alps/mediatek/preloader/out/platform.o
                0x12013810                platform_post_init

.text.platform_error_handler
                0x1201392c       0x48
 .text.platform_error_handler
                0xffffffffffffffff       0x48 /alps/mprelease/MPload/ALPS.JB2.MP.V1.3_VANZO89_WET_JB2/source/alps/mediatek/preloader/out/platform.o
                0x1201392c                platform_error_handler

.text.platform_assert
                0x12013974       0x30
 .text.platform_assert
                0xffffffffffffffff       0x30 /alps/mprelease/MPload/ALPS.JB2.MP.V1.3_VANZO89_WET_JB2/source/alps/mediatek/preloader/out/platform.o
                0x12013974                platform_assert

.text.outchar   0x120139a4       0x34
 .text.outchar  0xffffffffffffffff       0x34 /alps/mprelease/MPload/ALPS.JB2.MP.V1.3_VANZO89_WET_JB2/source/alps/mediatek/preloader/out/print.o

.text.outhex    0x120139d8       0x50
 .text.outhex   0xffffffffffffffff       0x50 /alps/mprelease/MPload/ALPS.JB2.MP.V1.3_VANZO89_WET_JB2/source/alps/mediatek/preloader/out/print.o

.text.outdec    0x12013a28       0x3c
 .text.outdec   0xffffffffffffffff       0x3c /alps/mprelease/MPload/ALPS.JB2.MP.V1.3_VANZO89_WET_JB2/source/alps/mediatek/preloader/out/print.o

.text.log_ctrl  0x12013a64       0x64
 .text.log_ctrl
                0xffffffffffffffff       0x64 /alps/mprelease/MPload/ALPS.JB2.MP.V1.3_VANZO89_WET_JB2/source/alps/mediatek/preloader/out/print.o
                0x12013a64                log_ctrl

.text.log_status
                0x12013ac8       0x18
 .text.log_status
                0xffffffffffffffff       0x18 /alps/mprelease/MPload/ALPS.JB2.MP.V1.3_VANZO89_WET_JB2/source/alps/mediatek/preloader/out/print.o
                0x12013ac8                log_status

.text.vprint    0x12013ae0      0x200
 .text.vprint   0xffffffffffffffff      0x200 /alps/mprelease/MPload/ALPS.JB2.MP.V1.3_VANZO89_WET_JB2/source/alps/mediatek/preloader/out/print.o
                0x12013ae0                vprint

.text.print     0x12013ce0       0x24
 .text.print    0xffffffffffffffff       0x24 /alps/mprelease/MPload/ALPS.JB2.MP.V1.3_VANZO89_WET_JB2/source/alps/mediatek/preloader/out/print.o
                0x12013ce0                print

.text.dbg_print
                0x12013d04       0x1c
 .text.dbg_print
                0xffffffffffffffff       0x1c /alps/mprelease/MPload/ALPS.JB2.MP.V1.3_VANZO89_WET_JB2/source/alps/mediatek/preloader/out/print.o
                0x12013d04                dbg_print

.text.sec_auth  0x12013d20       0x64
 .text.sec_auth
                0xffffffffffffffff       0x64 /alps/mprelease/MPload/ALPS.JB2.MP.V1.3_VANZO89_WET_JB2/source/alps/mediatek/preloader/out/sec_auth.o
                0x12013d20                sec_auth

.text.sec_hash  0x12013d84        0x4
 .text.sec_hash
                0xffffffffffffffff        0x4 /alps/mprelease/MPload/ALPS.JB2.MP.V1.3_VANZO89_WET_JB2/source/alps/mediatek/preloader/out/sec_auth.o
                0x12013d84                sec_hash

.text.da_auth_init
                0x12013d88       0x38
 .text.da_auth_init
                0xffffffffffffffff       0x38 /alps/mprelease/MPload/ALPS.JB2.MP.V1.3_VANZO89_WET_JB2/source/alps/mediatek/preloader/out/sec_auth.o
                0x12013d88                da_auth_init

.text.img_auth_init
                0x12013dc0       0x38
 .text.img_auth_init
                0xffffffffffffffff       0x38 /alps/mprelease/MPload/ALPS.JB2.MP.V1.3_VANZO89_WET_JB2/source/alps/mediatek/preloader/out/sec_auth.o
                0x12013dc0                img_auth_init

.text.sec_boot_img_check
                0x12013df8       0x48
 .text.sec_boot_img_check
                0xffffffffffffffff       0x48 /alps/mprelease/MPload/ALPS.JB2.MP.V1.3_VANZO89_WET_JB2/source/alps/mediatek/preloader/out/sec_boot.o
                0x12013df8                sec_boot_img_check

.text.sec_boot_check
                0x12013e40      0x170
 .text.sec_boot_check
                0xffffffffffffffff      0x170 /alps/mprelease/MPload/ALPS.JB2.MP.V1.3_VANZO89_WET_JB2/source/alps/mediatek/preloader/out/sec_boot.o
                0x12013e40                sec_boot_check

.text.sec_ctrl_init
                0x12013fb0        0x4
 .text.sec_ctrl_init
                0xffffffffffffffff        0x4 /alps/mprelease/MPload/ALPS.JB2.MP.V1.3_VANZO89_WET_JB2/source/alps/mediatek/preloader/out/sec_ctrl.o
                0x12013fb0                sec_ctrl_init

.text.sec_flashtool_cfg_init
                0x12013fb4        0x4
 .text.sec_flashtool_cfg_init
                0xffffffffffffffff        0x4 /alps/mprelease/MPload/ALPS.JB2.MP.V1.3_VANZO89_WET_JB2/source/alps/mediatek/preloader/out/sec_flashtool_cfg.o
                0x12013fb4                sec_flashtool_cfg_init

.text.sec_key_init
                0x12013fb8       0xa4
 .text.sec_key_init
                0xffffffffffffffff       0xa4 /alps/mprelease/MPload/ALPS.JB2.MP.V1.3_VANZO89_WET_JB2/source/alps/mediatek/preloader/out/sec_key.o
                0x12013fb8                sec_key_init

.text.sec_cfg_load
                0x1201405c       0xf4
 .text.sec_cfg_load
                0xffffffffffffffff       0xf4 /alps/mprelease/MPload/ALPS.JB2.MP.V1.3_VANZO89_WET_JB2/source/alps/mediatek/preloader/out/sec.o
                0x1201405c                sec_cfg_load

.text.sec_cfg_save
                0x12014150       0xdc
 .text.sec_cfg_save
                0xffffffffffffffff       0xdc /alps/mprelease/MPload/ALPS.JB2.MP.V1.3_VANZO89_WET_JB2/source/alps/mediatek/preloader/out/sec.o
                0x12014150                sec_cfg_save

.text.sec_lib_init
                0x1201422c      0x1a0
 .text.sec_lib_init
                0xffffffffffffffff      0x1a0 /alps/mprelease/MPload/ALPS.JB2.MP.V1.3_VANZO89_WET_JB2/source/alps/mediatek/preloader/out/sec.o
                0x1201422c                sec_lib_init

.text.is_BR_cmd_disabled
                0x120143cc       0x80
 .text.is_BR_cmd_disabled
                0xffffffffffffffff       0x80 /alps/mprelease/MPload/ALPS.JB2.MP.V1.3_VANZO89_WET_JB2/source/alps/mediatek/preloader/out/sec.o
                0x120143cc                is_BR_cmd_disabled

.text.sec_region_check
                0x1201444c      0x114
 .text.sec_region_check
                0xffffffffffffffff      0x114 /alps/mprelease/MPload/ALPS.JB2.MP.V1.3_VANZO89_WET_JB2/source/alps/mediatek/preloader/out/sec_region.o
                0x1201444c                sec_region_check

.text.sec_rom_info_init
                0x12014560       0x54
 .text.sec_rom_info_init
                0xffffffffffffffff       0x54 /alps/mprelease/MPload/ALPS.JB2.MP.V1.3_VANZO89_WET_JB2/source/alps/mediatek/preloader/out/sec_rom_info.o
                0x12014560                sec_rom_info_init

.text.factory_mode_valid
                0x120145b4       0x68
 .text.factory_mode_valid
                0xffffffffffffffff       0x68 /alps/mprelease/MPload/ALPS.JB2.MP.V1.3_VANZO89_WET_JB2/source/alps/mediatek/preloader/out/sec_secroimg.o
                0x120145b4                factory_mode_valid

.text.sec_lib_read_secro
                0x1201461c      0x14c
 .text.sec_lib_read_secro
                0xffffffffffffffff      0x14c /alps/mprelease/MPload/ALPS.JB2.MP.V1.3_VANZO89_WET_JB2/source/alps/mediatek/preloader/out/sec_secroimg.o
                0x1201461c                sec_lib_read_secro

.text.sec2plname
                0x12014768      0x258
 .text.sec2plname
                0xffffffffffffffff      0x258 /alps/mprelease/MPload/ALPS.JB2.MP.V1.3_VANZO89_WET_JB2/source/alps/mediatek/preloader/out/sec_util.o
                0x12014768                sec2plname

.text.sec_util_get_secro_buf
                0x120149c0        0xc
 .text.sec_util_get_secro_buf
                0xffffffffffffffff        0xc /alps/mprelease/MPload/ALPS.JB2.MP.V1.3_VANZO89_WET_JB2/source/alps/mediatek/preloader/out/sec_util.o
                0x120149c0                sec_util_get_secro_buf

.text.sec_util_get_img_buf
                0x120149cc        0xc
 .text.sec_util_get_img_buf
                0xffffffffffffffff        0xc /alps/mprelease/MPload/ALPS.JB2.MP.V1.3_VANZO89_WET_JB2/source/alps/mediatek/preloader/out/sec_util.o
                0x120149cc                sec_util_get_img_buf

.text.sec_util_get_chunk_buf
                0x120149d8        0xc
 .text.sec_util_get_chunk_buf
                0xffffffffffffffff        0xc /alps/mprelease/MPload/ALPS.JB2.MP.V1.3_VANZO89_WET_JB2/source/alps/mediatek/preloader/out/sec_util.o
                0x120149d8                sec_util_get_chunk_buf

.text.sec_util_get_working_buf
                0x120149e4        0xc
 .text.sec_util_get_working_buf
                0xffffffffffffffff        0xc /alps/mprelease/MPload/ALPS.JB2.MP.V1.3_VANZO89_WET_JB2/source/alps/mediatek/preloader/out/sec_util.o
                0x120149e4                sec_util_get_working_buf

.text.sec_util_read_image
                0x120149f0      0x168
 .text.sec_util_read_image
                0xffffffffffffffff      0x168 /alps/mprelease/MPload/ALPS.JB2.MP.V1.3_VANZO89_WET_JB2/source/alps/mediatek/preloader/out/sec_util.o
                0x120149f0                sec_util_read_image

.text.sec_util_brom_download_recovery_check
                0x12014b58        0x8
 .text.sec_util_brom_download_recovery_check
                0xffffffffffffffff        0x8 /alps/mprelease/MPload/ALPS.JB2.MP.V1.3_VANZO89_WET_JB2/source/alps/mediatek/preloader/out/sec_util.o
                0x12014b58                sec_util_brom_download_recovery_check

.text.strchr    0x12014b60       0x28
 .text.strchr   0xffffffffffffffff       0x28 /alps/mprelease/MPload/ALPS.JB2.MP.V1.3_VANZO89_WET_JB2/source/alps/mediatek/preloader/out/stdlib.o
                0x12014b60                strchr

.text.atoi      0x12014b88       0x88
 .text.atoi     0xffffffffffffffff       0x88 /alps/mprelease/MPload/ALPS.JB2.MP.V1.3_VANZO89_WET_JB2/source/alps/mediatek/preloader/out/stdlib.o
                0x12014b88                atoi

.text.strlen    0x12014c10       0x20
 .text.strlen   0xffffffffffffffff       0x20 /alps/mprelease/MPload/ALPS.JB2.MP.V1.3_VANZO89_WET_JB2/source/alps/mediatek/preloader/out/string.o
                0x12014c10                strlen

.text.strcmp    0x12014c30       0x28
 .text.strcmp   0xffffffffffffffff       0x28 /alps/mprelease/MPload/ALPS.JB2.MP.V1.3_VANZO89_WET_JB2/source/alps/mediatek/preloader/out/string.o
                0x12014c30                strcmp

.text.strncmp   0x12014c58       0x44
 .text.strncmp  0xffffffffffffffff       0x44 /alps/mprelease/MPload/ALPS.JB2.MP.V1.3_VANZO89_WET_JB2/source/alps/mediatek/preloader/out/string.o
                0x12014c58                strncmp

.text.memset    0x12014c9c       0x18
 .text.memset   0xffffffffffffffff       0x18 /alps/mprelease/MPload/ALPS.JB2.MP.V1.3_VANZO89_WET_JB2/source/alps/mediatek/preloader/out/string.o
                0x12014c9c                memset

.text.memcpy    0x12014cb4       0x20
 .text.memcpy   0xffffffffffffffff       0x20 /alps/mprelease/MPload/ALPS.JB2.MP.V1.3_VANZO89_WET_JB2/source/alps/mediatek/preloader/out/string.o
                0x12014cb4                memcpy

.text.memcmp    0x12014cd4       0x2c
 .text.memcmp   0xffffffffffffffff       0x2c /alps/mprelease/MPload/ALPS.JB2.MP.V1.3_VANZO89_WET_JB2/source/alps/mediatek/preloader/out/string.o
                0x12014cd4                memcmp

.text.serial_setbrg
                0x12014d00       0xa8
 .text.serial_setbrg
                0xffffffffffffffff       0xa8 /alps/mprelease/MPload/ALPS.JB2.MP.V1.3_VANZO89_WET_JB2/source/alps/mediatek/preloader/out/uart.o
                0x12014d00                serial_setbrg

.text.mtk_serial_set_current_uart
                0x12014da8       0x64
 .text.mtk_serial_set_current_uart
                0xffffffffffffffff       0x64 /alps/mprelease/MPload/ALPS.JB2.MP.V1.3_VANZO89_WET_JB2/source/alps/mediatek/preloader/out/uart.o
                0x12014da8                mtk_serial_set_current_uart

.text.mtk_uart_init
                0x12014e0c       0xc4
 .text.mtk_uart_init
                0xffffffffffffffff       0xc4 /alps/mprelease/MPload/ALPS.JB2.MP.V1.3_VANZO89_WET_JB2/source/alps/mediatek/preloader/out/uart.o
                0x12014e0c                mtk_uart_init

.text.PutUARTByte
                0x12014ed0       0x40
 .text.PutUARTByte
                0xffffffffffffffff       0x40 /alps/mprelease/MPload/ALPS.JB2.MP.V1.3_VANZO89_WET_JB2/source/alps/mediatek/preloader/out/uart.o
                0x12014ed0                PutUARTByte

.text.GetUARTBytes
                0x12014f10       0x84
 .text.GetUARTBytes
                0xffffffffffffffff       0x84 /alps/mprelease/MPload/ALPS.JB2.MP.V1.3_VANZO89_WET_JB2/source/alps/mediatek/preloader/out/uart.o
                0x12014f10                GetUARTBytes

.text.seclib_sej_init
                0x12014f94       0x20
 .text.seclib_sej_init
                0xffffffffffffffff       0x20 /alps/mprelease/MPload/ALPS.JB2.MP.V1.3_VANZO89_WET_JB2/source/alps/mediatek/platform/mt6589/preloader/src/SecLib.a(seclib.o)
                0x12014f94                seclib_sej_init

.text.seclib_cust_init
                0x12014fb4       0x84
 .text.seclib_cust_init
                0xffffffffffffffff       0x84 /alps/mprelease/MPload/ALPS.JB2.MP.V1.3_VANZO89_WET_JB2/source/alps/mediatek/platform/mt6589/preloader/src/SecLib.a(seclib.o)
                0x12014fb4                seclib_cust_init

.text.seclib_check
                0x12015038        0x4
 .text.seclib_check
                0xffffffffffffffff        0x4 /alps/mprelease/MPload/ALPS.JB2.MP.V1.3_VANZO89_WET_JB2/source/alps/mediatek/platform/mt6589/preloader/src/SecLib.a(seclib.o)
                0x12015038                seclib_check

.text.seclib_init
                0x1201503c      0x2d0
 .text.seclib_init
                0xffffffffffffffff      0x2d0 /alps/mprelease/MPload/ALPS.JB2.MP.V1.3_VANZO89_WET_JB2/source/alps/mediatek/platform/mt6589/preloader/src/SecLib.a(seclib.o)
                0x1201503c                seclib_init

.text.seclib_sec_boot_enabled
                0x1201530c       0xe8
 .text.seclib_sec_boot_enabled
                0xffffffffffffffff       0xe8 /alps/mprelease/MPload/ALPS.JB2.MP.V1.3_VANZO89_WET_JB2/source/alps/mediatek/platform/mt6589/preloader/src/SecLib.a(seclib_boot.o)
                0x1201530c                seclib_sec_boot_enabled

.text.seclib_image_check
                0x120153f4      0x2e4
 .text.seclib_image_check
                0xffffffffffffffff      0x2e4 /alps/mprelease/MPload/ALPS.JB2.MP.V1.3_VANZO89_WET_JB2/source/alps/mediatek/platform/mt6589/preloader/src/SecLib.a(seclib_boot.o)
                0x120153f4                seclib_image_check

.text.seclib_sec_usbdl_enabled
                0x120156d8       0x8c
 .text.seclib_sec_usbdl_enabled
                0xffffffffffffffff       0x8c /alps/mprelease/MPload/ALPS.JB2.MP.V1.3_VANZO89_WET_JB2/source/alps/mediatek/platform/mt6589/preloader/src/SecLib.a(seclib_dl.o)
                0x120156d8                seclib_sec_usbdl_enabled

.text.seclib_image_hash_compute
                0x12015764       0x64
 .text.seclib_image_hash_compute
                0xffffffffffffffff       0x64 /alps/mprelease/MPload/ALPS.JB2.MP.V1.3_VANZO89_WET_JB2/source/alps/mediatek/platform/mt6589/preloader/src/SecLib.a(seclib_img_hash.o)
                0x12015764                seclib_image_hash_compute

.text.seclib_image_allocate_mem
                0x120157c8       0x9c
 .text.seclib_image_allocate_mem
                0xffffffffffffffff       0x9c /alps/mprelease/MPload/ALPS.JB2.MP.V1.3_VANZO89_WET_JB2/source/alps/mediatek/platform/mt6589/preloader/src/SecLib.a(seclib_img_verify.o)

.text.seclib_image_fread
                0x12015864       0xc0
 .text.seclib_image_fread
                0xffffffffffffffff       0xc0 /alps/mprelease/MPload/ALPS.JB2.MP.V1.3_VANZO89_WET_JB2/source/alps/mediatek/platform/mt6589/preloader/src/SecLib.a(seclib_img_verify.o)

.text.seclib_image_hash_only
                0x12015924      0x130
 .text.seclib_image_hash_only
                0xffffffffffffffff      0x130 /alps/mprelease/MPload/ALPS.JB2.MP.V1.3_VANZO89_WET_JB2/source/alps/mediatek/platform/mt6589/preloader/src/SecLib.a(seclib_img_verify.o)
                0x12015924                seclib_image_hash_only

.text.seclib_image_search_extension
                0x12015a54      0x170
 .text.seclib_image_search_extension
                0xffffffffffffffff      0x170 /alps/mprelease/MPload/ALPS.JB2.MP.V1.3_VANZO89_WET_JB2/source/alps/mediatek/platform/mt6589/preloader/src/SecLib.a(seclib_img_verify.o)
                0x12015a54                seclib_image_search_extension

.text.seclib_image_verify
                0x12015bc4      0x698
 .text.seclib_image_verify
                0xffffffffffffffff      0x698 /alps/mprelease/MPload/ALPS.JB2.MP.V1.3_VANZO89_WET_JB2/source/alps/mediatek/platform/mt6589/preloader/src/SecLib.a(seclib_img_verify.o)
                0x12015bc4                seclib_image_verify

.text.seclib_read_sbc_key
                0x1201625c       0x6c
 .text.seclib_read_sbc_key
                0xffffffffffffffff       0x6c /alps/mprelease/MPload/ALPS.JB2.MP.V1.3_VANZO89_WET_JB2/source/alps/mediatek/platform/mt6589/preloader/src/SecLib.a(seclib_key.o)
                0x1201625c                seclib_read_sbc_key

.text.seclib_read_sec_cmd_cfg
                0x120162c8       0x74
 .text.seclib_read_sec_cmd_cfg
                0xffffffffffffffff       0x74 /alps/mprelease/MPload/ALPS.JB2.MP.V1.3_VANZO89_WET_JB2/source/alps/mediatek/platform/mt6589/preloader/src/SecLib.a(seclib_key.o)
                0x120162c8                seclib_read_sec_cmd_cfg

.text.seclib_secroimg_read
                0x1201633c      0x108
 .text.seclib_secroimg_read
                0xffffffffffffffff      0x108 /alps/mprelease/MPload/ALPS.JB2.MP.V1.3_VANZO89_WET_JB2/source/alps/mediatek/platform/mt6589/preloader/src/SecLib.a(seclib_secroimg.o)
                0x1201633c                seclib_secroimg_read

.text.sp_read_swotp
                0x12016444       0x74
 .text.sp_read_swotp
                0xffffffffffffffff       0x74 /alps/mprelease/MPload/ALPS.JB2.MP.V1.3_VANZO89_WET_JB2/source/alps/mediatek/platform/mt6589/preloader/src/SecLib.a(seclib_sej_export.o)
                0x12016444                sp_read_swotp

.text.sp_sej_enc
                0x120164b8       0xa8
 .text.sp_sej_enc
                0xffffffffffffffff       0xa8 /alps/mprelease/MPload/ALPS.JB2.MP.V1.3_VANZO89_WET_JB2/source/alps/mediatek/platform/mt6589/preloader/src/SecLib.a(seclib_sej_export.o)
                0x120164b8                sp_sej_enc

.text.sp_sej_dec
                0x12016560       0xc4
 .text.sp_sej_dec
                0xffffffffffffffff       0xc4 /alps/mprelease/MPload/ALPS.JB2.MP.V1.3_VANZO89_WET_JB2/source/alps/mediatek/platform/mt6589/preloader/src/SecLib.a(seclib_sej_export.o)
                0x12016560                sp_sej_dec

.text.sp_sej_init
                0x12016624       0x7c
 .text.sp_sej_init
                0xffffffffffffffff       0x7c /alps/mprelease/MPload/ALPS.JB2.MP.V1.3_VANZO89_WET_JB2/source/alps/mediatek/platform/mt6589/preloader/src/SecLib.a(seclib_sej_export.o)
                0x12016624                sp_sej_init

.text.sp_check_platform
                0x120166a0        0x4
 .text.sp_check_platform
                0xffffffffffffffff        0x4 /alps/mprelease/MPload/ALPS.JB2.MP.V1.3_VANZO89_WET_JB2/source/alps/mediatek/platform/mt6589/preloader/src/SecLib.a(seclib_sej_export.o)
                0x120166a0                sp_check_platform

.text.seclib_image_hash_dump
                0x120166a4       0x68
 .text.seclib_image_hash_dump
                0xffffffffffffffff       0x68 /alps/mprelease/MPload/ALPS.JB2.MP.V1.3_VANZO89_WET_JB2/source/alps/mediatek/platform/mt6589/preloader/src/SecLib.a(seclib_util.o)
                0x120166a4                seclib_image_hash_dump

.text.get_sec_cfg_cnt_size
                0x1201670c        0x8
 .text.get_sec_cfg_cnt_size
                0xffffffffffffffff        0x8 /alps/mprelease/MPload/ALPS.JB2.MP.V1.3_VANZO89_WET_JB2/source/alps/mediatek/platform/mt6589/preloader/src/SecLib.a(seclib_util.o)
                0x1201670c                get_sec_cfg_cnt_size

.text.get_seccfg_cipher_len
                0x12016714        0x8
 .text.get_seccfg_cipher_len
                0xffffffffffffffff        0x8 /alps/mprelease/MPload/ALPS.JB2.MP.V1.3_VANZO89_WET_JB2/source/alps/mediatek/platform/mt6589/preloader/src/SecLib.a(seccfg_crypto.o)
                0x12016714                get_seccfg_cipher_len

.text.seclib_mtk_rsa_n_key_len
                0x1201671c        0x8
 .text.seclib_mtk_rsa_n_key_len
                0xffffffffffffffff        0x8 /alps/mprelease/MPload/ALPS.JB2.MP.V1.3_VANZO89_WET_JB2/source/alps/mediatek/platform/mt6589/preloader/src/security/auth/DaVerifyLib.a(auth.o)
                0x1201671c                seclib_mtk_rsa_n_key_len

.text.seclib_mtk_rsa_e_key_len
                0x12016724        0x8
 .text.seclib_mtk_rsa_e_key_len
                0xffffffffffffffff        0x8 /alps/mprelease/MPload/ALPS.JB2.MP.V1.3_VANZO89_WET_JB2/source/alps/mediatek/platform/mt6589/preloader/src/security/auth/DaVerifyLib.a(auth.o)
                0x12016724                seclib_mtk_rsa_e_key_len

.text.seclib_rsa_init
                0x1201672c       0xf0
 .text.seclib_rsa_init
                0xffffffffffffffff       0xf0 /alps/mprelease/MPload/ALPS.JB2.MP.V1.3_VANZO89_WET_JB2/source/alps/mediatek/platform/mt6589/preloader/src/security/auth/DaVerifyLib.a(auth.o)
                0x1201672c                seclib_rsa_init

.text.seclib_rsa_verify
                0x1201681c       0xe8
 .text.seclib_rsa_verify
                0xffffffffffffffff       0xe8 /alps/mprelease/MPload/ALPS.JB2.MP.V1.3_VANZO89_WET_JB2/source/alps/mediatek/platform/mt6589/preloader/src/security/auth/DaVerifyLib.a(auth.o)
                0x1201681c                seclib_rsa_verify

.text.bgn_read_str
                0x12016904      0x1f4
 .text.bgn_read_str
                0xffffffffffffffff      0x1f4 /alps/mprelease/MPload/ALPS.JB2.MP.V1.3_VANZO89_WET_JB2/source/alps/mediatek/platform/mt6589/preloader/src/security/auth/DaVerifyLib.a(bgn_io.o)
                0x12016904                bgn_read_str

.text.bgn_read_bin
                0x12016af8       0xa0
 .text.bgn_read_bin
                0xffffffffffffffff       0xa0 /alps/mprelease/MPload/ALPS.JB2.MP.V1.3_VANZO89_WET_JB2/source/alps/mediatek/platform/mt6589/preloader/src/security/auth/DaVerifyLib.a(bgn_io.o)
                0x12016af8                bgn_read_bin

.text.bgn_write_bin
                0x12016b98       0x78
 .text.bgn_write_bin
                0xffffffffffffffff       0x78 /alps/mprelease/MPload/ALPS.JB2.MP.V1.3_VANZO89_WET_JB2/source/alps/mediatek/platform/mt6589/preloader/src/security/auth/DaVerifyLib.a(bgn_io.o)
                0x12016b98                bgn_write_bin

.text.bgn_grow  0x12016c10       0x88
 .text.bgn_grow
                0xffffffffffffffff       0x88 /alps/mprelease/MPload/ALPS.JB2.MP.V1.3_VANZO89_WET_JB2/source/alps/mediatek/platform/mt6589/preloader/src/security/auth/DaVerifyLib.a(bgn_util.o)
                0x12016c10                bgn_grow

.text.bgn_copy  0x12016c98       0x94
 .text.bgn_copy
                0xffffffffffffffff       0x94 /alps/mprelease/MPload/ALPS.JB2.MP.V1.3_VANZO89_WET_JB2/source/alps/mediatek/platform/mt6589/preloader/src/security/auth/DaVerifyLib.a(bgn_util.o)
                0x12016c98                bgn_copy

.text.bgn_lset  0x12016d2c       0x58
 .text.bgn_lset
                0xffffffffffffffff       0x58 /alps/mprelease/MPload/ALPS.JB2.MP.V1.3_VANZO89_WET_JB2/source/alps/mediatek/platform/mt6589/preloader/src/security/auth/DaVerifyLib.a(bgn_util.o)
                0x12016d2c                bgn_lset

.text.bgn_msb   0x12016d84       0x64
 .text.bgn_msb  0xffffffffffffffff       0x64 /alps/mprelease/MPload/ALPS.JB2.MP.V1.3_VANZO89_WET_JB2/source/alps/mediatek/platform/mt6589/preloader/src/security/auth/DaVerifyLib.a(bgn_util.o)
                0x12016d84                bgn_msb

.text.bgn_size  0x12016de8       0x14
 .text.bgn_size
                0xffffffffffffffff       0x14 /alps/mprelease/MPload/ALPS.JB2.MP.V1.3_VANZO89_WET_JB2/source/alps/mediatek/platform/mt6589/preloader/src/security/auth/DaVerifyLib.a(bgn_util.o)
                0x12016de8                bgn_size

.text.bgn_shift_l
                0x12016dfc      0x108
 .text.bgn_shift_l
                0xffffffffffffffff      0x108 /alps/mprelease/MPload/ALPS.JB2.MP.V1.3_VANZO89_WET_JB2/source/alps/mediatek/platform/mt6589/preloader/src/security/auth/DaVerifyLib.a(bgn_util.o)
                0x12016dfc                bgn_shift_l

.text.bgn_shift_r
                0x12016f04       0xd4
 .text.bgn_shift_r
                0xffffffffffffffff       0xd4 /alps/mprelease/MPload/ALPS.JB2.MP.V1.3_VANZO89_WET_JB2/source/alps/mediatek/platform/mt6589/preloader/src/security/auth/DaVerifyLib.a(bgn_util.o)
                0x12016f04                bgn_shift_r

.text.bgn_cmp_abs
                0x12016fd8       0xd0
 .text.bgn_cmp_abs
                0xffffffffffffffff       0xd0 /alps/mprelease/MPload/ALPS.JB2.MP.V1.3_VANZO89_WET_JB2/source/alps/mediatek/platform/mt6589/preloader/src/security/auth/DaVerifyLib.a(bgn_util.o)
                0x12016fd8                bgn_cmp_abs

.text.bgn_cmp_num
                0x120170a8      0x100
 .text.bgn_cmp_num
                0xffffffffffffffff      0x100 /alps/mprelease/MPload/ALPS.JB2.MP.V1.3_VANZO89_WET_JB2/source/alps/mediatek/platform/mt6589/preloader/src/security/auth/DaVerifyLib.a(bgn_util.o)
                0x120170a8                bgn_cmp_num

.text.bgn_cmp_int
                0x120171a8       0x40
 .text.bgn_cmp_int
                0xffffffffffffffff       0x40 /alps/mprelease/MPload/ALPS.JB2.MP.V1.3_VANZO89_WET_JB2/source/alps/mediatek/platform/mt6589/preloader/src/security/auth/DaVerifyLib.a(bgn_util.o)
                0x120171a8                bgn_cmp_int

.text.bgn_add_abs
                0x120171e8      0x140
 .text.bgn_add_abs
                0xffffffffffffffff      0x140 /alps/mprelease/MPload/ALPS.JB2.MP.V1.3_VANZO89_WET_JB2/source/alps/mediatek/platform/mt6589/preloader/src/security/auth/DaVerifyLib.a(bgn_util.o)
                0x120171e8                bgn_add_abs

.text.bgn_sub_hlp
                0x12017328       0x80
 .text.bgn_sub_hlp
                0xffffffffffffffff       0x80 /alps/mprelease/MPload/ALPS.JB2.MP.V1.3_VANZO89_WET_JB2/source/alps/mediatek/platform/mt6589/preloader/src/security/auth/DaVerifyLib.a(bgn_util.o)
                0x12017328                bgn_sub_hlp

.text.bgn_sub_abs
                0x120173a8       0xd0
 .text.bgn_sub_abs
                0xffffffffffffffff       0xd0 /alps/mprelease/MPload/ALPS.JB2.MP.V1.3_VANZO89_WET_JB2/source/alps/mediatek/platform/mt6589/preloader/src/security/auth/DaVerifyLib.a(bgn_util.o)
                0x120173a8                bgn_sub_abs

.text.bgn_add_bgn
                0x12017478       0x80
 .text.bgn_add_bgn
                0xffffffffffffffff       0x80 /alps/mprelease/MPload/ALPS.JB2.MP.V1.3_VANZO89_WET_JB2/source/alps/mediatek/platform/mt6589/preloader/src/security/auth/DaVerifyLib.a(bgn_util.o)
                0x12017478                bgn_add_bgn

.text.bgn_sub_bgn
                0x120174f8       0x84
 .text.bgn_sub_bgn
                0xffffffffffffffff       0x84 /alps/mprelease/MPload/ALPS.JB2.MP.V1.3_VANZO89_WET_JB2/source/alps/mediatek/platform/mt6589/preloader/src/security/auth/DaVerifyLib.a(bgn_util.o)
                0x120174f8                bgn_sub_bgn

.text.bgn_add_int
                0x1201757c       0x40
 .text.bgn_add_int
                0xffffffffffffffff       0x40 /alps/mprelease/MPload/ALPS.JB2.MP.V1.3_VANZO89_WET_JB2/source/alps/mediatek/platform/mt6589/preloader/src/security/auth/DaVerifyLib.a(bgn_util.o)
                0x1201757c                bgn_add_int

.text.bgn_sub_int
                0x120175bc       0x40
 .text.bgn_sub_int
                0xffffffffffffffff       0x40 /alps/mprelease/MPload/ALPS.JB2.MP.V1.3_VANZO89_WET_JB2/source/alps/mediatek/platform/mt6589/preloader/src/security/auth/DaVerifyLib.a(bgn_util.o)
                0x120175bc                bgn_sub_int

.text.bgn_mul_hlp
                0x120175fc      0xa04
 .text.bgn_mul_hlp
                0xffffffffffffffff      0xa04 /alps/mprelease/MPload/ALPS.JB2.MP.V1.3_VANZO89_WET_JB2/source/alps/mediatek/platform/mt6589/preloader/src/security/auth/DaVerifyLib.a(bgn_util.o)
                0x120175fc                bgn_mul_hlp

.text.bgn_mul_bgn
                0x12018000      0x154
 .text.bgn_mul_bgn
                0xffffffffffffffff      0x154 /alps/mprelease/MPload/ALPS.JB2.MP.V1.3_VANZO89_WET_JB2/source/alps/mediatek/platform/mt6589/preloader/src/security/auth/DaVerifyLib.a(bgn_util.o)
                0x12018000                bgn_mul_bgn

.text.bgn_mul_int
                0x12018154       0x2c
 .text.bgn_mul_int
                0xffffffffffffffff       0x2c /alps/mprelease/MPload/ALPS.JB2.MP.V1.3_VANZO89_WET_JB2/source/alps/mediatek/platform/mt6589/preloader/src/security/auth/DaVerifyLib.a(bgn_util.o)
                0x12018154                bgn_mul_int

.text.bgn_div_bgn
                0x12018180      0x5d0
 .text.bgn_div_bgn
                0xffffffffffffffff      0x5d0 /alps/mprelease/MPload/ALPS.JB2.MP.V1.3_VANZO89_WET_JB2/source/alps/mediatek/platform/mt6589/preloader/src/security/auth/DaVerifyLib.a(bgn_util.o)
                0x12018180                bgn_div_bgn

.text.bgn_mod_bgn
                0x12018750       0xb4
 .text.bgn_mod_bgn
                0xffffffffffffffff       0xb4 /alps/mprelease/MPload/ALPS.JB2.MP.V1.3_VANZO89_WET_JB2/source/alps/mediatek/platform/mt6589/preloader/src/security/auth/DaVerifyLib.a(bgn_util.o)
                0x12018750                bgn_mod_bgn

.text.rsa_pub   0x12018804       0xb0
 .text.rsa_pub  0xffffffffffffffff       0xb0 /alps/mprelease/MPload/ALPS.JB2.MP.V1.3_VANZO89_WET_JB2/source/alps/mediatek/platform/mt6589/preloader/src/security/auth/DaVerifyLib.a(rsa.o)
                0x12018804                rsa_pub

.text.rsa_verify
                0x120188b4       0xcc
 .text.rsa_verify
                0xffffffffffffffff       0xcc /alps/mprelease/MPload/ALPS.JB2.MP.V1.3_VANZO89_WET_JB2/source/alps/mediatek/platform/mt6589/preloader/src/security/auth/DaVerifyLib.a(rsa.o)
                0x120188b4                rsa_verify

.text.get_ul    0x12018980       0x24
 .text.get_ul   0xffffffffffffffff       0x24 /alps/mprelease/MPload/ALPS.JB2.MP.V1.3_VANZO89_WET_JB2/source/alps/mediatek/platform/mt6589/preloader/src/security/auth/DaVerifyLib.a(sha1.o)
                0x12018980                get_ul

.text.set_ul    0x120189a4       0x20
 .text.set_ul   0xffffffffffffffff       0x20 /alps/mprelease/MPload/ALPS.JB2.MP.V1.3_VANZO89_WET_JB2/source/alps/mediatek/platform/mt6589/preloader/src/security/auth/DaVerifyLib.a(sha1.o)
                0x120189a4                set_ul

.text.cal_P     0x120189c4       0xb0
 .text.cal_P    0xffffffffffffffff       0xb0 /alps/mprelease/MPload/ALPS.JB2.MP.V1.3_VANZO89_WET_JB2/source/alps/mediatek/platform/mt6589/preloader/src/security/auth/DaVerifyLib.a(sha1.o)
                0x120189c4                cal_P

.text.hash_process
                0x12018a74      0x440
 .text.hash_process
                0xffffffffffffffff      0x440 /alps/mprelease/MPload/ALPS.JB2.MP.V1.3_VANZO89_WET_JB2/source/alps/mediatek/platform/mt6589/preloader/src/security/auth/DaVerifyLib.a(sha1.o)

.text.hash_starts
                0x12018eb4       0x4c
 .text.hash_starts
                0xffffffffffffffff       0x4c /alps/mprelease/MPload/ALPS.JB2.MP.V1.3_VANZO89_WET_JB2/source/alps/mediatek/platform/mt6589/preloader/src/security/auth/DaVerifyLib.a(sha1.o)
                0x12018eb4                hash_starts

.text.hash_update
                0x12018f00       0xbc
 .text.hash_update
                0xffffffffffffffff       0xbc /alps/mprelease/MPload/ALPS.JB2.MP.V1.3_VANZO89_WET_JB2/source/alps/mediatek/platform/mt6589/preloader/src/security/auth/DaVerifyLib.a(sha1.o)
                0x12018f00                hash_update

.text.hash_finish
                0x12018fbc       0x98
 .text.hash_finish
                0xffffffffffffffff       0x98 /alps/mprelease/MPload/ALPS.JB2.MP.V1.3_VANZO89_WET_JB2/source/alps/mediatek/platform/mt6589/preloader/src/security/auth/DaVerifyLib.a(sha1.o)
                0x12018fbc                hash_finish

.text.sha1      0x12019054       0x50
 .text.sha1     0xffffffffffffffff       0x50 /alps/mprelease/MPload/ALPS.JB2.MP.V1.3_VANZO89_WET_JB2/source/alps/mediatek/platform/mt6589/preloader/src/security/auth/DaVerifyLib.a(sha1.o)
                0x12019054                sha1

.text.malloc    0x120190a4       0xbc
 .text.malloc   0xffffffffffffffff       0xbc /alps/mprelease/MPload/ALPS.JB2.MP.V1.3_VANZO89_WET_JB2/source/alps/mediatek/platform/mt6589/preloader/src/security/auth/DaVerifyLib.a(stdlib.o)
                0x120190a4                malloc

.text.free      0x12019160        0x4
 .text.free     0xffffffffffffffff        0x4 /alps/mprelease/MPload/ALPS.JB2.MP.V1.3_VANZO89_WET_JB2/source/alps/mediatek/platform/mt6589/preloader/src/security/auth/DaVerifyLib.a(stdlib.o)
                0x12019160                free

.text.bgn_init  0x12019164       0x18
 .text.bgn_init
                0xffffffffffffffff       0x18 /alps/mprelease/MPload/ALPS.JB2.MP.V1.3_VANZO89_WET_JB2/source/alps/mediatek/platform/mt6589/preloader/src/security/auth/DaVerifyLib.a(bgn_core.o)
                0x12019164                bgn_init

.text.bgn_free  0x1201917c       0x44
 .text.bgn_free
                0xffffffffffffffff       0x44 /alps/mprelease/MPload/ALPS.JB2.MP.V1.3_VANZO89_WET_JB2/source/alps/mediatek/platform/mt6589/preloader/src/security/auth/DaVerifyLib.a(bgn_core.o)
                0x1201917c                bgn_free

.text.bgn_exp_mod
                0x120191c0      0x400
 .text.bgn_exp_mod
                0xffffffffffffffff      0x400 /alps/mprelease/MPload/ALPS.JB2.MP.V1.3_VANZO89_WET_JB2/source/alps/mediatek/platform/mt6589/preloader/src/security/auth/DaVerifyLib.a(bgn_core.o)
                0x120191c0                bgn_exp_mod

.text.montg_init
                0x120195c0       0x40
 .text.montg_init
                0xffffffffffffffff       0x40 /alps/mprelease/MPload/ALPS.JB2.MP.V1.3_VANZO89_WET_JB2/source/alps/mediatek/platform/mt6589/preloader/src/security/auth/DaVerifyLib.a(montg.o)
                0x120195c0                montg_init

.text.montg_mul
                0x12019600      0x140
 .text.montg_mul
                0xffffffffffffffff      0x140 /alps/mprelease/MPload/ALPS.JB2.MP.V1.3_VANZO89_WET_JB2/source/alps/mediatek/platform/mt6589/preloader/src/security/auth/DaVerifyLib.a(montg.o)
                0x12019600                montg_mul

.text.montg_red
                0x12019740       0x40
 .text.montg_red
                0xffffffffffffffff       0x40 /alps/mprelease/MPload/ALPS.JB2.MP.V1.3_VANZO89_WET_JB2/source/alps/mediatek/platform/mt6589/preloader/src/security/auth/DaVerifyLib.a(montg.o)
                0x12019740                montg_red

.text.seclib_sbc_enabled
                0x12019780       0x60
 .text.seclib_sbc_enabled
                0xffffffffffffffff       0x60 /alps/mprelease/MPload/ALPS.JB2.MP.V1.3_VANZO89_WET_JB2/source/alps/mediatek/platform/mt6589/preloader/src/SecPlat.a(efuse.o)
                0x12019780                seclib_sbc_enabled

.text.seclib_daa_enabled
                0x120197e0       0x60
 .text.seclib_daa_enabled
                0xffffffffffffffff       0x60 /alps/mprelease/MPload/ALPS.JB2.MP.V1.3_VANZO89_WET_JB2/source/alps/mediatek/platform/mt6589/preloader/src/SecPlat.a(efuse.o)
                0x120197e0                seclib_daa_enabled

.text.seclib_sla_enabled
                0x12019840       0x60
 .text.seclib_sla_enabled
                0xffffffffffffffff       0x60 /alps/mprelease/MPload/ALPS.JB2.MP.V1.3_VANZO89_WET_JB2/source/alps/mediatek/platform/mt6589/preloader/src/SecPlat.a(efuse.o)
                0x12019840                seclib_sla_enabled

.text.seclib_3g_disable
                0x120198a0       0x14
 .text.seclib_3g_disable
                0xffffffffffffffff       0x14 /alps/mprelease/MPload/ALPS.JB2.MP.V1.3_VANZO89_WET_JB2/source/alps/mediatek/platform/mt6589/preloader/src/SecPlat.a(efuse.o)
                0x120198a0                seclib_3g_disable

.text.seclib_brom_meta_mode
                0x120198b4       0x10
 .text.seclib_brom_meta_mode
                0xffffffffffffffff       0x10 /alps/mprelease/MPload/ALPS.JB2.MP.V1.3_VANZO89_WET_JB2/source/alps/mediatek/platform/mt6589/preloader/src/SecPlat.a(meta.o)
                0x120198b4                seclib_brom_meta_mode

.text.seclib_region_check
                0x120198c4       0x58
 .text.seclib_region_check
                0xffffffffffffffff       0x58 /alps/mprelease/MPload/ALPS.JB2.MP.V1.3_VANZO89_WET_JB2/source/alps/mediatek/platform/mt6589/preloader/src/SecPlat.a(seclib_region.o)
                0x120198c4                seclib_region_check

.text.SEJ_V3_Init
                0x1201991c      0x10c
 .text.SEJ_V3_Init
                0xffffffffffffffff      0x10c /alps/mprelease/MPload/ALPS.JB2.MP.V1.3_VANZO89_WET_JB2/source/alps/mediatek/platform/mt6589/preloader/src/SecPlat.a(sej_hk.o)
                0x1201991c                SEJ_V3_Init

.text.SEJ_V3_Run
                0x12019a28       0x84
 .text.SEJ_V3_Run
                0xffffffffffffffff       0x84 /alps/mprelease/MPload/ALPS.JB2.MP.V1.3_VANZO89_WET_JB2/source/alps/mediatek/platform/mt6589/preloader/src/SecPlat.a(sej_hk.o)
                0x12019a28                SEJ_V3_Run

.text.SEJ_V3_Terminate
                0x12019aac       0x38
 .text.SEJ_V3_Terminate
                0xffffffffffffffff       0x38 /alps/mprelease/MPload/ALPS.JB2.MP.V1.3_VANZO89_WET_JB2/source/alps/mediatek/platform/mt6589/preloader/src/SecPlat.a(sej_hk.o)
                0x12019aac                SEJ_V3_Terminate

.text.sej_set_clk
                0x12019ae4        0x8
 .text.sej_set_clk
                0xffffffffffffffff        0x8 /alps/mprelease/MPload/ALPS.JB2.MP.V1.3_VANZO89_WET_JB2/source/alps/mediatek/platform/mt6589/preloader/src/SecPlat.a(sej_sk.o)
                0x12019ae4                sej_set_clk

.text.sej_set_iv
                0x12019aec       0x24
 .text.sej_set_iv
                0xffffffffffffffff       0x24 /alps/mprelease/MPload/ALPS.JB2.MP.V1.3_VANZO89_WET_JB2/source/alps/mediatek/platform/mt6589/preloader/src/SecPlat.a(sej_sk.o)
                0x12019aec                sej_set_iv

.text.sej_set_mode
                0x12019b10       0x6c
 .text.sej_set_mode
                0xffffffffffffffff       0x6c /alps/mprelease/MPload/ALPS.JB2.MP.V1.3_VANZO89_WET_JB2/source/alps/mediatek/platform/mt6589/preloader/src/SecPlat.a(sej_sk.o)
                0x12019b10                sej_set_mode

.text.sej_set_key
                0x12019b7c      0x10c
 .text.sej_set_key
                0xffffffffffffffff      0x10c /alps/mprelease/MPload/ALPS.JB2.MP.V1.3_VANZO89_WET_JB2/source/alps/mediatek/platform/mt6589/preloader/src/SecPlat.a(sej_sk.o)
                0x12019b7c                sej_set_key

.text.sej_do_aes
                0x12019c88      0x10c
 .text.sej_do_aes
                0xffffffffffffffff      0x10c /alps/mprelease/MPload/ALPS.JB2.MP.V1.3_VANZO89_WET_JB2/source/alps/mediatek/platform/mt6589/preloader/src/SecPlat.a(sej_sk.o)
                0x12019c88                sej_do_aes

.text.sej_deinit
                0x12019d94       0x1c
 .text.sej_deinit
                0xffffffffffffffff       0x1c /alps/mprelease/MPload/ALPS.JB2.MP.V1.3_VANZO89_WET_JB2/source/alps/mediatek/platform/mt6589/preloader/src/SecPlat.a(sej_sk.o)
                0x12019d94                sej_deinit

.text.sej_init  0x12019db0      0x120
 .text.sej_init
                0xffffffffffffffff      0x120 /alps/mprelease/MPload/ALPS.JB2.MP.V1.3_VANZO89_WET_JB2/source/alps/mediatek/platform/mt6589/preloader/src/SecPlat.a(sej_sk.o)
                0x12019db0                sej_init

.rodata         0x12019ed0       0x14
 .rodata        0x12019ed0        0x4 /alps/mprelease/MPload/ALPS.JB2.MP.V1.3_VANZO89_WET_JB2/source/alps/mediatek/preloader/out/download.o
 .rodata        0x12019ed4       0x10 /alps/mprelease/MPload/ALPS.JB2.MP.V1.3_VANZO89_WET_JB2/source/alps/mediatek/preloader/out/msdc.o

.rodata.str1.1  0x12019ee4     0x37e7
 ** merge strings
                0x12019ee4     0x37e7

.rodata.tran_mant
                0x1201d6cb       0x10
 .rodata.tran_mant
                0x1201d6cb       0x10 /alps/mprelease/MPload/ALPS.JB2.MP.V1.3_VANZO89_WET_JB2/source/alps/mediatek/preloader/out/mmc_core.o

.rodata.tran_exp
                0x1201d6dc       0x20
 .rodata.tran_exp
                0x1201d6dc       0x20 /alps/mprelease/MPload/ALPS.JB2.MP.V1.3_VANZO89_WET_JB2/source/alps/mediatek/preloader/out/mmc_core.o

.rodata.g_mmcTable
                0x1201d6fc       0x1c
 .rodata.g_mmcTable
                0x1201d6fc       0x1c /alps/mprelease/MPload/ALPS.JB2.MP.V1.3_VANZO89_WET_JB2/source/alps/mediatek/preloader/out/mmc_core.o

.rodata.msdc_rsp
                0x1201d718       0x24
 .rodata.msdc_rsp
                0x1201d718       0x24 /alps/mprelease/MPload/ALPS.JB2.MP.V1.3_VANZO89_WET_JB2/source/alps/mediatek/preloader/out/msdc.o

.rodata.__FUNCTION__.1260
                0x1201d73c       0x15
 .rodata.__FUNCTION__.1260
                0x1201d73c       0x15 /alps/mprelease/MPload/ALPS.JB2.MP.V1.3_VANZO89_WET_JB2/source/alps/mediatek/preloader/out/mt_pmic_wrap_init.o

.rodata.__FUNCTION__.1240
                0x1201d751        0xb
 .rodata.__FUNCTION__.1240
                0x1201d751        0xb /alps/mprelease/MPload/ALPS.JB2.MP.V1.3_VANZO89_WET_JB2/source/alps/mediatek/preloader/out/mt_pmic_wrap_init.o

.rodata.__func__.1391
                0x1201d75c       0x12
 .rodata.__func__.1391
                0x1201d75c       0x12 /alps/mprelease/MPload/ALPS.JB2.MP.V1.3_VANZO89_WET_JB2/source/alps/mediatek/preloader/out/mt_usbphy.o

.rodata.__func__.1404
                0x1201d76e       0x16
 .rodata.__func__.1404
                0x1201d76e       0x16 /alps/mprelease/MPload/ALPS.JB2.MP.V1.3_VANZO89_WET_JB2/source/alps/mediatek/preloader/out/mt_usbphy.o

.rodata.__func__.1362
                0x1201d784       0x18
 .rodata.__func__.1362
                0x1201d784       0x18 /alps/mprelease/MPload/ALPS.JB2.MP.V1.3_VANZO89_WET_JB2/source/alps/mediatek/preloader/out/partition_mt.o

.rodata.__func__.1385
                0x1201d79c       0x14
 .rodata.__func__.1385
                0x1201d79c       0x14 /alps/mprelease/MPload/ALPS.JB2.MP.V1.3_VANZO89_WET_JB2/source/alps/mediatek/preloader/out/partition_mt.o

.rodata.sys_stack_sz
                0x1201d7b0        0x4
 .rodata.sys_stack_sz
                0x1201d7b0        0x4 /alps/mprelease/MPload/ALPS.JB2.MP.V1.3_VANZO89_WET_JB2/source/alps/mediatek/preloader/out/platform.o
                0x1201d7b0                sys_stack_sz

.rodata.digits.1220
                0x1201d7b4        0xb
 .rodata.digits.1220
                0x1201d7b4        0xb /alps/mprelease/MPload/ALPS.JB2.MP.V1.3_VANZO89_WET_JB2/source/alps/mediatek/preloader/out/stdlib.o

.rodata.padding
                0x1201d7bf       0x40
 .rodata.padding
                0x1201d7bf       0x40 /alps/mprelease/MPload/ALPS.JB2.MP.V1.3_VANZO89_WET_JB2/source/alps/mediatek/platform/mt6589/preloader/src/security/auth/DaVerifyLib.a(sha1.o)

.rodata.g_AC_FIXED_PATTERN
                0x1201d800       0x30
 .rodata.g_AC_FIXED_PATTERN
                0x1201d800       0x30 /alps/mprelease/MPload/ALPS.JB2.MP.V1.3_VANZO89_WET_JB2/source/alps/mediatek/platform/mt6589/preloader/src/SecPlat.a(sej_hk.o)

.data           0x1201d830       0x48
 .data          0x1201d830       0x1c /alps/mprelease/MPload/ALPS.JB2.MP.V1.3_VANZO89_WET_JB2/source/alps/mediatek/preloader/out/dramc_dle_cal.o
 .data          0x1201d84c       0x1c /alps/mprelease/MPload/ALPS.JB2.MP.V1.3_VANZO89_WET_JB2/source/alps/mediatek/preloader/out/dramc_dqs_gw.o
 .data          0x1201d868        0x8 /alps/mprelease/MPload/ALPS.JB2.MP.V1.3_VANZO89_WET_JB2/source/alps/mediatek/preloader/out/handshake_uart.o
 .data          0x1201d870        0x8 /alps/mprelease/MPload/ALPS.JB2.MP.V1.3_VANZO89_WET_JB2/source/alps/mediatek/preloader/out/handshake_usb.o

.data.msdc_cap  0x1201d878       0x10
 .data.msdc_cap
                0x1201d878       0x10 /alps/mprelease/MPload/ALPS.JB2.MP.V1.3_VANZO89_WET_JB2/source/alps/mediatek/preloader/out/cust_msdc.o
                0x1201d878                msdc_cap

.data.num_of_emi_records
                0x1201d888        0x4
 .data.num_of_emi_records
                0x1201d888        0x4 /alps/mprelease/MPload/ALPS.JB2.MP.V1.3_VANZO89_WET_JB2/source/alps/mediatek/preloader/out/custom_emi.o
                0x1201d888                num_of_emi_records

.data.emi_settings
                0x1201d88c       0xb8
 .data.emi_settings
                0x1201d88c       0xb8 /alps/mprelease/MPload/ALPS.JB2.MP.V1.3_VANZO89_WET_JB2/source/alps/mediatek/preloader/out/custom_emi.o
                0x1201d88c                emi_settings

.data.rel.local.platform_parts
                0x1201d948      0x3c0
 .data.rel.local.platform_parts
                0x1201d948      0x3c0 /alps/mprelease/MPload/ALPS.JB2.MP.V1.3_VANZO89_WET_JB2/source/alps/mediatek/preloader/out/cust_part.o

.data.rel.local.opt_dle_value
                0x1201dd08        0x4
 .data.rel.local.opt_dle_value
                0x1201dd08        0x4 /alps/mprelease/MPload/ALPS.JB2.MP.V1.3_VANZO89_WET_JB2/source/alps/mediatek/preloader/out/dramc_dle_cal.o
                0x1201dd08                opt_dle_value

.data.rel.local.dle_tbl
                0x1201dd0c       0x1c
 .data.rel.local.dle_tbl
                0x1201dd0c       0x1c /alps/mprelease/MPload/ALPS.JB2.MP.V1.3_VANZO89_WET_JB2/source/alps/mediatek/preloader/out/dramc_dle_cal.o
                0x1201dd0c                dle_tbl

.data.rel.dle_test_cases
                0x1201dd28       0x10
 .data.rel.dle_test_cases
                0x1201dd28       0x10 /alps/mprelease/MPload/ALPS.JB2.MP.V1.3_VANZO89_WET_JB2/source/alps/mediatek/preloader/out/dramc_dle_cal.o
                0x1201dd28                dle_test_cases

.data.rel.dle_tuning_factors
                0x1201dd38       0x14
 .data.rel.dle_tuning_factors
                0x1201dd38       0x14 /alps/mprelease/MPload/ALPS.JB2.MP.V1.3_VANZO89_WET_JB2/source/alps/mediatek/preloader/out/dramc_dle_cal.o
                0x1201dd38                dle_tuning_factors

.data.rel.local.dqsi_gw_dly_fine_tbl
                0x1201dd4c       0x44
 .data.rel.local.dqsi_gw_dly_fine_tbl
                0x1201dd4c       0x44 /alps/mprelease/MPload/ALPS.JB2.MP.V1.3_VANZO89_WET_JB2/source/alps/mediatek/preloader/out/dramc_dqs_gw.o
                0x1201dd4c                dqsi_gw_dly_fine_tbl

.data.rel.local.dqsi_gw_dly_coarse_tbl
                0x1201dd90       0x1c
 .data.rel.local.dqsi_gw_dly_coarse_tbl
                0x1201dd90       0x1c /alps/mprelease/MPload/ALPS.JB2.MP.V1.3_VANZO89_WET_JB2/source/alps/mediatek/preloader/out/dramc_dqs_gw.o
                0x1201dd90                dqsi_gw_dly_coarse_tbl

.data.rel.dqs_gw_test_cases_1
                0x1201ddac       0x10
 .data.rel.dqs_gw_test_cases_1
                0x1201ddac       0x10 /alps/mprelease/MPload/ALPS.JB2.MP.V1.3_VANZO89_WET_JB2/source/alps/mediatek/preloader/out/dramc_dqs_gw.o
                0x1201ddac                dqs_gw_test_cases_1

.data.rel.dqs_gw_tuning_factors
                0x1201ddbc       0x28
 .data.rel.dqs_gw_tuning_factors
                0x1201ddbc       0x28 /alps/mprelease/MPload/ALPS.JB2.MP.V1.3_VANZO89_WET_JB2/source/alps/mediatek/preloader/out/dramc_dqs_gw.o
                0x1201ddbc                dqs_gw_tuning_factors

.data.gpio1_dat
                0x1201dde4        0x4
 .data.gpio1_dat
                0x1201dde4        0x4 /alps/mprelease/MPload/ALPS.JB2.MP.V1.3_VANZO89_WET_JB2/source/alps/mediatek/preloader/out/gpio.o

.data.gpioext_dat
                0x1201dde8        0x4
 .data.gpioext_dat
                0x1201dde8        0x4 /alps/mprelease/MPload/ALPS.JB2.MP.V1.3_VANZO89_WET_JB2/source/alps/mediatek/preloader/out/gpio.o

.data.gpio_dat  0x1201ddec        0x4
 .data.gpio_dat
                0x1201ddec        0x4 /alps/mprelease/MPload/ALPS.JB2.MP.V1.3_VANZO89_WET_JB2/source/alps/mediatek/preloader/out/gpio.o

.data.mdl_number.1343
                0x1201ddf0        0x4
 .data.mdl_number.1343
                0x1201ddf0        0x4 /alps/mprelease/MPload/ALPS.JB2.MP.V1.3_VANZO89_WET_JB2/source/alps/mediatek/preloader/out/mt_emi.o

.data.mempll3_m4pdiv_1_0
                0x1201ddf4        0x4
 .data.mempll3_m4pdiv_1_0
                0x1201ddf4        0x4 /alps/mprelease/MPload/ALPS.JB2.MP.V1.3_VANZO89_WET_JB2/source/alps/mediatek/preloader/out/mtk_pll.o
                0x1201ddf4                mempll3_m4pdiv_1_0

.data.pllc1_dmss_pcw_ncpo_30_24_n4
                0x1201ddf8        0x4
 .data.pllc1_dmss_pcw_ncpo_30_24_n4
                0x1201ddf8        0x4 /alps/mprelease/MPload/ALPS.JB2.MP.V1.3_VANZO89_WET_JB2/source/alps/mediatek/preloader/out/mtk_pll.o
                0x1201ddf8                pllc1_dmss_pcw_ncpo_30_24_n4

.data.mempll3_fb_mck_sel
                0x1201ddfc        0x4
 .data.mempll3_fb_mck_sel
                0x1201ddfc        0x4 /alps/mprelease/MPload/ALPS.JB2.MP.V1.3_VANZO89_WET_JB2/source/alps/mediatek/preloader/out/mtk_pll.o
                0x1201ddfc                mempll3_fb_mck_sel

.data.mempll2_m4pdiv_1_0
                0x1201de00        0x4
 .data.mempll2_m4pdiv_1_0
                0x1201de00        0x4 /alps/mprelease/MPload/ALPS.JB2.MP.V1.3_VANZO89_WET_JB2/source/alps/mediatek/preloader/out/mtk_pll.o
                0x1201de00                mempll2_m4pdiv_1_0

.data.mempll4_fb_mck_sel
                0x1201de04        0x4
 .data.mempll4_fb_mck_sel
                0x1201de04        0x4 /alps/mprelease/MPload/ALPS.JB2.MP.V1.3_VANZO89_WET_JB2/source/alps/mediatek/preloader/out/mtk_pll.o
                0x1201de04                mempll4_fb_mck_sel

.data.mempll2_fb_mck_sel
                0x1201de08        0x4
 .data.mempll2_fb_mck_sel
                0x1201de08        0x4 /alps/mprelease/MPload/ALPS.JB2.MP.V1.3_VANZO89_WET_JB2/source/alps/mediatek/preloader/out/mtk_pll.o
                0x1201de08                mempll2_fb_mck_sel

.data.pllc1_dmss_pcw_ncpo_23_0_n4
                0x1201de0c        0x4
 .data.pllc1_dmss_pcw_ncpo_23_0_n4
                0x1201de0c        0x4 /alps/mprelease/MPload/ALPS.JB2.MP.V1.3_VANZO89_WET_JB2/source/alps/mediatek/preloader/out/mtk_pll.o
                0x1201de0c                pllc1_dmss_pcw_ncpo_23_0_n4

.data.mempll4_m4pdiv_1_0
                0x1201de10        0x4
 .data.mempll4_m4pdiv_1_0
                0x1201de10        0x4 /alps/mprelease/MPload/ALPS.JB2.MP.V1.3_VANZO89_WET_JB2/source/alps/mediatek/preloader/out/mtk_pll.o
                0x1201de10                mempll4_m4pdiv_1_0

.data.mempll2_fbdiv_6_0
                0x1201de14        0x4
 .data.mempll2_fbdiv_6_0
                0x1201de14        0x4 /alps/mprelease/MPload/ALPS.JB2.MP.V1.3_VANZO89_WET_JB2/source/alps/mediatek/preloader/out/mtk_pll.o
                0x1201de14                mempll2_fbdiv_6_0

.data.pllc1_blp
                0x1201de18        0x4
 .data.pllc1_blp
                0x1201de18        0x4 /alps/mprelease/MPload/ALPS.JB2.MP.V1.3_VANZO89_WET_JB2/source/alps/mediatek/preloader/out/mtk_pll.o
                0x1201de18                pllc1_blp

.data.mempll3_fbdiv_6_0
                0x1201de1c        0x4
 .data.mempll3_fbdiv_6_0
                0x1201de1c        0x4 /alps/mprelease/MPload/ALPS.JB2.MP.V1.3_VANZO89_WET_JB2/source/alps/mediatek/preloader/out/mtk_pll.o
                0x1201de1c                mempll3_fbdiv_6_0

.data.mempll4_fbdiv_6_0
                0x1201de20        0x4
 .data.mempll4_fbdiv_6_0
                0x1201de20        0x4 /alps/mprelease/MPload/ALPS.JB2.MP.V1.3_VANZO89_WET_JB2/source/alps/mediatek/preloader/out/mtk_pll.o
                0x1201de20                mempll4_fbdiv_6_0

.data.g_line_coding
                0x1201de24        0x7
 .data.g_line_coding
                0x1201de24        0x7 /alps/mprelease/MPload/ALPS.JB2.MP.V1.3_VANZO89_WET_JB2/source/alps/mediatek/preloader/out/mt_usbd.o

.data.fifo_addr
                0x1201de2c        0x4
 .data.fifo_addr
                0x1201de2c        0x4 /alps/mprelease/MPload/ALPS.JB2.MP.V1.3_VANZO89_WET_JB2/source/alps/mediatek/preloader/out/mt_usbd.o
                0x1201de2c                fifo_addr

.data.rel.local.fs_data_ep_descriptor_ptrs
                0x1201de30        0x8
 .data.rel.local.fs_data_ep_descriptor_ptrs
                0x1201de30        0x8 /alps/mprelease/MPload/ALPS.JB2.MP.V1.3_VANZO89_WET_JB2/source/alps/mediatek/preloader/out/mt_usbtty.o

.data.rel.local.usbtty_string_table
                0x1201de38       0x18
 .data.rel.local.usbtty_string_table
                0x1201de38       0x18 /alps/mprelease/MPload/ALPS.JB2.MP.V1.3_VANZO89_WET_JB2/source/alps/mediatek/preloader/out/mt_usbtty.o

.data.header_function_descriptor
                0x1201de50        0x5
 .data.header_function_descriptor
                0x1201de50        0x5 /alps/mprelease/MPload/ALPS.JB2.MP.V1.3_VANZO89_WET_JB2/source/alps/mediatek/preloader/out/mt_usbtty.o

.data.rel.local.fs_comm_ep_descriptor_ptrs
                0x1201de58        0x4
 .data.rel.local.fs_comm_ep_descriptor_ptrs
                0x1201de58        0x4 /alps/mprelease/MPload/ALPS.JB2.MP.V1.3_VANZO89_WET_JB2/source/alps/mediatek/preloader/out/mt_usbtty.o

.data.rel.local.hs_comm_ep_descriptor_ptrs
                0x1201de5c        0x4
 .data.rel.local.hs_comm_ep_descriptor_ptrs
                0x1201de5c        0x4 /alps/mprelease/MPload/ALPS.JB2.MP.V1.3_VANZO89_WET_JB2/source/alps/mediatek/preloader/out/mt_usbtty.o

.data.call_management_descriptor
                0x1201de60        0x5
 .data.call_management_descriptor
                0x1201de60        0x5 /alps/mprelease/MPload/ALPS.JB2.MP.V1.3_VANZO89_WET_JB2/source/alps/mediatek/preloader/out/mt_usbtty.o
                0x1201de60                call_management_descriptor

.data.device_qualifier_descriptor
                0x1201de65        0x9
 .data.device_qualifier_descriptor
                0x1201de65        0x9 /alps/mprelease/MPload/ALPS.JB2.MP.V1.3_VANZO89_WET_JB2/source/alps/mediatek/preloader/out/mt_usbtty.o

.data.rel.local.hs_data_ep_descriptor_ptrs
                0x1201de70        0x8
 .data.rel.local.hs_data_ep_descriptor_ptrs
                0x1201de70        0x8 /alps/mprelease/MPload/ALPS.JB2.MP.V1.3_VANZO89_WET_JB2/source/alps/mediatek/preloader/out/mt_usbtty.o

.data.language  0x1201de78        0x4
 .data.language
                0x1201de78        0x4 /alps/mprelease/MPload/ALPS.JB2.MP.V1.3_VANZO89_WET_JB2/source/alps/mediatek/preloader/out/mt_usbtty.o

.data.hs_ep_descriptors
                0x1201de7c       0x15
 .data.hs_ep_descriptors
                0x1201de7c       0x15 /alps/mprelease/MPload/ALPS.JB2.MP.V1.3_VANZO89_WET_JB2/source/alps/mediatek/preloader/out/mt_usbtty.o

.data.device_descriptor
                0x1201de91       0x12
 .data.device_descriptor
                0x1201de91       0x12 /alps/mprelease/MPload/ALPS.JB2.MP.V1.3_VANZO89_WET_JB2/source/alps/mediatek/preloader/out/mt_usbtty.o

.data.abstract_control_descriptor
                0x1201dea3        0x4
 .data.abstract_control_descriptor
                0x1201dea3        0x4 /alps/mprelease/MPload/ALPS.JB2.MP.V1.3_VANZO89_WET_JB2/source/alps/mediatek/preloader/out/mt_usbtty.o

.data.fs_ep_descriptors
                0x1201dea7       0x15
 .data.fs_ep_descriptors
                0x1201dea7       0x15 /alps/mprelease/MPload/ALPS.JB2.MP.V1.3_VANZO89_WET_JB2/source/alps/mediatek/preloader/out/mt_usbtty.o

.data.interface_descriptors
                0x1201debc       0x12
 .data.interface_descriptors
                0x1201debc       0x12 /alps/mprelease/MPload/ALPS.JB2.MP.V1.3_VANZO89_WET_JB2/source/alps/mediatek/preloader/out/mt_usbtty.o

.data.config_descriptors
                0x1201dece        0x9
 .data.config_descriptors
                0x1201dece        0x9 /alps/mprelease/MPload/ALPS.JB2.MP.V1.3_VANZO89_WET_JB2/source/alps/mediatek/preloader/out/mt_usbtty.o

.data.union_function_descriptor
                0x1201ded7        0x5
 .data.union_function_descriptor
                0x1201ded7        0x5 /alps/mprelease/MPload/ALPS.JB2.MP.V1.3_VANZO89_WET_JB2/source/alps/mediatek/preloader/out/mt_usbtty.o
                0x1201ded7                union_function_descriptor

.data.PAGE_SIZE
                0x1201dedc        0x4
 .data.PAGE_SIZE
                0x1201dedc        0x4 /alps/mprelease/MPload/ALPS.JB2.MP.V1.3_VANZO89_WET_JB2/source/alps/mediatek/preloader/out/partition_mt.o

.data.log_ptr   0x1201dee0        0x4
 .data.log_ptr  0x1201dee0        0x4 /alps/mprelease/MPload/ALPS.JB2.MP.V1.3_VANZO89_WET_JB2/source/alps/mediatek/preloader/out/print.o

.data.g_uart    0x1201dee4        0x4
 .data.g_uart   0x1201dee4        0x4 /alps/mprelease/MPload/ALPS.JB2.MP.V1.3_VANZO89_WET_JB2/source/alps/mediatek/preloader/out/uart.o
                0x1201dee4                g_uart

.data.sec_crypto_sig_size
                0x1201dee8       0x10
 .data.sec_crypto_sig_size
                0x1201dee8       0x10 /alps/mprelease/MPload/ALPS.JB2.MP.V1.3_VANZO89_WET_JB2/source/alps/mediatek/platform/mt6589/preloader/src/SecLib.a(seclib_img_verify.o)
                0x1201dee8                sec_crypto_sig_size

.data.sec_crypto_hash_size
                0x1201def8       0x14
 .data.sec_crypto_hash_size
                0x1201def8       0x14 /alps/mprelease/MPload/ALPS.JB2.MP.V1.3_VANZO89_WET_JB2/source/alps/mediatek/platform/mt6589/preloader/src/SecLib.a(seclib_img_verify.o)
                0x1201def8                sec_crypto_hash_size

.data.heap_max_size
                0x1201df0c        0x4
 .data.heap_max_size
                0x1201df0c        0x4 /alps/mprelease/MPload/ALPS.JB2.MP.V1.3_VANZO89_WET_JB2/source/alps/mediatek/platform/mt6589/preloader/src/security/auth/DaVerifyLib.a(stdlib.o)
                0x1201df0c                heap_max_size

.got            0x1201df10      0x164
 ** GOT         0x1201df10      0x158
 ** GOT PLT     0x1201e068        0xc
